

HI-TECH Software PIC LITE Macro Assembler V9.83 build 10920 
                                                                                               Thu Apr 11 20:50:07 2013

HI-TECH Software Omniscient Code Generator (Lite mode) build 10920
     1  0000                     opt subtitle "HI-TECH Software Omniscient Code Generator (Lite mode) build 10920"
     2                           
     3                           opt pagewidth 120
     4                           
     5                           	opt lm
     6                           
     7                           	processor	12F1822
     8                           clrc	macro
     9                           	bcf	3,0
    10  0000                     	endm
    11                           clrz	macro
    12                           	bcf	3,2
    13  0000                     	endm
    14                           setc	macro
    15                           	bsf	3,0
    16  0000                     	endm
    17                           setz	macro
    18                           	bsf	3,2
    19  0000                     	endm
    20                           skipc	macro
    21                           	btfss	3,0
    22  0000                     	endm
    23                           skipz	macro
    24                           	btfss	3,2
    25  0000                     	endm
    26                           skipnc	macro
    27                           	btfsc	3,0
    28  0000                     	endm
    29                           skipnz	macro
    30                           	btfsc	3,2
    31  0000                     	endm
    32  0000                     indf	equ	0
    33  0000                     indf0	equ	0
    34  0001                     indf1	equ	1
    35  0002                     pc	equ	2
    36  0002                     pcl	equ	2
    37  0003                     status	equ	3
    38  0004                     fsr0l	equ	4
    39  0005                     fsr0h	equ	5
    40  0006                     fsr1l	equ	6
    41  0007                     fsr1h	equ	7
    42  0008                     bsr	equ	8
    43  0009                     wreg	equ	9
    44  000B                     intcon	equ	11
    45  0001                     c	equ	1
    46  0000                     z	equ	0
    47  000A                     pclath	equ	10
    48                           # 12 "C:\Users\avili_000\Dropbox\rpi yad\carte home automation\pic\bootloader\main.c"
    49                           	psect config,class=CONFIG,delta=2 ;#
    50                           # 12 "C:\Users\avili_000\Dropbox\rpi yad\carte home automation\pic\bootloader\main.c"
    51  8007  FFE4               	dw 0xFFFC & 0xFFE7 & 0xFFFF ;#
    52                           # 15 "C:\Users\avili_000\Dropbox\rpi yad\carte home automation\pic\bootloader\main.c"
    53                           	psect config,class=CONFIG,delta=2 ;#
    54                           # 15 "C:\Users\avili_000\Dropbox\rpi yad\carte home automation\pic\bootloader\main.c"
    55  8008  DFFF               	dw 0xFFFF & 0xDFFF ;#
    56                           	FNCALL	_main,_litOctetStart
    57                           	FNCALL	_main,_put232
    58                           	FNCALL	_main,_get232
    59                           	FNCALL	_main,_xmodem_receive
    60                           	FNCALL	_xmodem_receive,_putc232
    61                           	FNCALL	_xmodem_receive,_get232
    62                           	FNCALL	_xmodem_receive,_decodeHexFile
    63                           	FNCALL	_xmodem_receive,_goFlashage
    64                           	FNCALL	_decodeHexFile,_hexToInt
    65                           	FNCALL	_decodeHexFile,_get232
    66                           	FNCALL	_decodeHexFile,___awdiv
    67                           	FNCALL	_put232,_putc232
    68                           	FNROOT	_main
    69                           	FNCALL	intlevel1,_interruptFct
    70                           	global	intlevel1
    71                           	FNROOT	intlevel1
    72                           	global	_iTabData
    73                           	global	_address
    74                           	global	_iAdresseBase
    75                           	global	_iData
    76                           	global	_counter
    77                           	global	_nbData
    78                           	global	_nbToReceive
    79                           	global	_recordType
    80                           	global	_retourXReceive
    81                           	global	_state
    82                           	global	_cptInterne
    83                           	global	_data
    84                           	global	_received
    85                           	global	_CARRY
    86                           psect	intentry,class=CODE,delta=2
    87                           global __pintentry
    88  0004                     __pintentry:
    89  0018                     _CARRY	set	24
    90                           	global	_GIE
    91  005F                     _GIE	set	95
    92                           	global	_PEIE
    93  005E                     _PEIE	set	94
    94                           	global	_RA5
    95  0065                     _RA5	set	101
    96                           	global	_RCIF
    97  008D                     _RCIF	set	141
    98                           	global	_TXIF
    99  008C                     _TXIF	set	140
   100                           	global	_OSCCON
   101  0099                     _OSCCON	set	153
   102                           	global	_TRISA
   103  008C                     _TRISA	set	140
   104                           	global	_HFIOFS
   105  04D0                     _HFIOFS	set	1232
   106                           	global	_TRISA1
   107  0461                     _TRISA1	set	1121
   108                           	global	_LATA5
   109  0865                     _LATA5	set	2149
   110                           	global	_RXDTSEL
   111  08EF                     _RXDTSEL	set	2287
   112                           	global	_TXCKSEL
   113  08EA                     _TXCKSEL	set	2282
   114                           	global	_EEADR
   115  0191                     _EEADR	set	401
   116                           	global	_EEDAT
   117  0193                     _EEDAT	set	403
   118                           	global	_ANSELA
   119  018C                     _ANSELA	set	396
   120                           	global	_EEADRL
   121  0191                     _EEADRL	set	401
   122                           	global	_EECON1
   123  0195                     _EECON1	set	405
   124                           	global	_EECON2
   125  0196                     _EECON2	set	406
   126                           	global	_EEDATA
   127  0193                     _EEDATA	set	403
   128                           	global	_EEDATL
   129  0193                     _EEDATL	set	403
   130                           	global	_RCREG
   131  0199                     _RCREG	set	409
   132                           	global	_SPBRG
   133  019B                     _SPBRG	set	411
   134                           	global	_TXREG
   135  019A                     _TXREG	set	410
   136                           	global	_BRG16
   137  0CFB                     _BRG16	set	3323
   138                           	global	_BRGH
   139  0CF2                     _BRGH	set	3314
   140                           	global	_CFGS
   141  0CAE                     _CFGS	set	3246
   142                           	global	_CREN
   143  0CEC                     _CREN	set	3308
   144                           	global	_EEPGD
   145  0CAF                     _EEPGD	set	3247
   146                           	global	_FREE
   147  0CAC                     _FREE	set	3244
   148                           	global	_LWLO
   149  0CAD                     _LWLO	set	3245
   150                           	global	_RD
   151  0CA8                     _RD	set	3240
   152                           	global	_SPEN
   153  0CEF                     _SPEN	set	3311
   154                           	global	_SYNC
   155  0CF4                     _SYNC	set	3316
   156                           	global	_TXEN
   157  0CF5                     _TXEN	set	3317
   158                           	global	_WR
   159  0CA9                     _WR	set	3241
   160                           	global	_WREN
   161  0CAA                     _WREN	set	3242
   162                           psect	strings,class=STRING,delta=2
   163                           global __pstrings
   164  041B                     __pstrings:
   165                           	global    __stringtab
   166  041B                     __stringtab:
   167  041B  3400               	retlw	0
   168                           psect	strings
   169                           	
   170  041C                     STR_1:	
   171  041C  3445               	retlw	69	;'E'
   172  041D  346E               	retlw	110	;'n'
   173  041E  3474               	retlw	116	;'t'
   174  041F  3465               	retlw	101	;'e'
   175  0420  3472               	retlw	114	;'r'
   176  0421  3420               	retlw	32	;' '
   177  0422  3479               	retlw	121	;'y'
   178  0423  3461               	retlw	97	;'a'
   179  0424  3464               	retlw	100	;'d'
   180  0425  3420               	retlw	32	;' '
   181  0426  3474               	retlw	116	;'t'
   182  0427  346F               	retlw	111	;'o'
   183  0428  3420               	retlw	32	;' '
   184  0429  3475               	retlw	117	;'u'
   185  042A  3470               	retlw	112	;'p'
   186  042B  3464               	retlw	100	;'d'
   187  042C  3461               	retlw	97	;'a'
   188  042D  3474               	retlw	116	;'t'
   189  042E  3465               	retlw	101	;'e'
   190  042F  3420               	retlw	32	;' '
   191  0430  3474               	retlw	116	;'t'
   192  0431  3468               	retlw	104	;'h'
   193  0432  3465               	retlw	101	;'e'
   194  0433  3420               	retlw	32	;' '
   195  0434  3466               	retlw	102	;'f'
   196  0435  3469               	retlw	105	;'i'
   197  0436  3472               	retlw	114	;'r'
   198  0437  346D               	retlw	109	;'m'
   199  0438  3477               	retlw	119	;'w'
   200  0439  3461               	retlw	97	;'a'
   201  043A  3472               	retlw	114	;'r'
   202  043B  3465               	retlw	101	;'e'
   203  043C  340D               	retlw	13
   204  043D  340A               	retlw	10
   205  043E  3400               	retlw	0
   206                           psect	strings
   207                           	
   208  043F                     STR_2:	
   209  043F  3457               	retlw	87	;'W'
   210  0440  3461               	retlw	97	;'a'
   211  0441  3469               	retlw	105	;'i'
   212  0442  3474               	retlw	116	;'t'
   213  0443  3469               	retlw	105	;'i'
   214  0444  346E               	retlw	110	;'n'
   215  0445  3467               	retlw	103	;'g'
   216  0446  3420               	retlw	32	;' '
   217  0447  3466               	retlw	102	;'f'
   218  0448  346F               	retlw	111	;'o'
   219  0449  3472               	retlw	114	;'r'
   220  044A  3420               	retlw	32	;' '
   221  044B  3478               	retlw	120	;'x'
   222  044C  346D               	retlw	109	;'m'
   223  044D  346F               	retlw	111	;'o'
   224  044E  3464               	retlw	100	;'d'
   225  044F  3465               	retlw	101	;'e'
   226  0450  346D               	retlw	109	;'m'
   227  0451  3420               	retlw	32	;' '
   228  0452  3474               	retlw	116	;'t'
   229  0453  3472               	retlw	114	;'r'
   230  0454  3461               	retlw	97	;'a'
   231  0455  346E               	retlw	110	;'n'
   232  0456  3473               	retlw	115	;'s'
   233  0457  3466               	retlw	102	;'f'
   234  0458  3465               	retlw	101	;'e'
   235  0459  3472               	retlw	114	;'r'
   236  045A  3474               	retlw	116	;'t'
   237  045B  340D               	retlw	13
   238  045C  340A               	retlw	10
   239  045D  3400               	retlw	0
   240                           psect	strings
   241                           	
   242  045E                     STR_3:	
   243  045E  3474               	retlw	116	;'t'
   244  045F  3469               	retlw	105	;'i'
   245  0460  346D               	retlw	109	;'m'
   246  0461  3465               	retlw	101	;'e'
   247  0462  346F               	retlw	111	;'o'
   248  0463  3475               	retlw	117	;'u'
   249  0464  3474               	retlw	116	;'t'
   250  0465  340D               	retlw	13
   251  0466  340A               	retlw	10
   252  0467  3400               	retlw	0
   253                           psect	strings
   254                           	
   255  0468                     STR_4:	
   256  0468  340A               	retlw	10
   257  0469  3442               	retlw	66	;'B'
   258  046A  3479               	retlw	121	;'y'
   259  046B  3465               	retlw	101	;'e'
   260  046C  340A               	retlw	10
   261  046D  3400               	retlw	0
   262                           psect	strings
   263                           	file	"C:\Users\AVILI_~1\AppData\Local\Temp\s6ps."
   264                           	line	#
   265                           psect cinit,class=CODE,delta=2
   266                           global start_initialization
   267  04D7                     start_initialization:
   268                           
   269                           psect	bssCOMMON,class=COMMON,space=1
   270                           global __pbssCOMMON
   271  007C                     __pbssCOMMON:
   272  007C                     _cptInterne:
   273  007C                            ds      1
   274                           
   275                           psect	bssBANK0,class=BANK0,space=1
   276                           global __pbssBANK0
   277  0020                     __pbssBANK0:
   278  0020                     _iTabData:
   279  0020                            ds      52
   280                           
   281  0054                     _address:
   282  0054                            ds      2
   283                           
   284  0056                     _iAdresseBase:
   285  0056                            ds      2
   286                           
   287  0058                     _iData:
   288  0058                            ds      2
   289                           
   290  005A                     _counter:
   291  005A                            ds      1
   292                           
   293  005B                     _nbData:
   294  005B                            ds      1
   295                           
   296  005C                     _nbToReceive:
   297  005C                            ds      1
   298                           
   299  005D                     _recordType:
   300  005D                            ds      1
   301                           
   302  005E                     _retourXReceive:
   303  005E                            ds      1
   304                           
   305  005F                     _state:
   306  005F                            ds      1
   307                           
   308  0060                     _data:
   309  0060                            ds      1
   310                           
   311  0061                     _received:
   312  0061                            ds      1
   313                           
   314                           psect clrtext,class=CODE,delta=2
   315                           global clear_ram
   316                           ;	Called with FSR0 containing the base address, and
   317                           ;	WREG with the size to clear
   318  04F3                     clear_ram:
   319  04F3  0064               	clrwdt			;clear the watchdog before getting into this loop
   320  04F4                     clrloop:
   321  04F4  0180               	clrf	indf0		;clear RAM location pointed to by FSR
   322  04F5  3101               	addfsr	0,1
   323  04F6  0B89               	decfsz wreg		;Have we reached the end of clearing yet?
   324  04F7  2CF4               	goto clrloop	;have we reached the end yet?
   325  04F8  3400               	retlw	0		;all done for this memory range, return
   326                           ; Clear objects allocated to COMMON
   327                           psect cinit,class=CODE,delta=2
   328                           	global __pbssCOMMON
   329  04D7  01FC               	clrf	((__pbssCOMMON)+0)&07Fh
   330                           ; Clear objects allocated to BANK0
   331                           psect cinit,class=CODE,delta=2
   332                           	global __pbssBANK0
   333  04D8  3020               	movlw	low(__pbssBANK0)
   334  04D9  0084               	movwf	fsr0l
   335  04DA  3000               	movlw	high(__pbssBANK0)
   336  04DB  0085               	movwf	fsr0h
   337  04DC  3042               	movlw	042h
   338  04DD  3184  24F3  3184   	fcall	clear_ram
   339                           psect cinit,class=CODE,delta=2
   340                           global end_of_initialization
   341                           
   342                           ;End of C runtime variable initialization code
   343                           
   344  04E0                     end_of_initialization:
   345  04E0  0020               movlb 0
   346  04E1  2A66               ljmp _main	;jump to C main() function
   347                           psect	cstackBANK1,class=BANK1,space=1
   348                           global __pcstackBANK1
   349  00A0                     __pcstackBANK1:
   350                           	global	main@tempoBoot
   351  00A0                     main@tempoBoot:	; 2 bytes @ 0x0
   352  00A0                     	ds	2
   353                           	global	main@i
   354  00A2                     main@i:	; 2 bytes @ 0x2
   355  00A2                     	ds	2
   356                           	global	main@secuUpdate
   357  00A4                     main@secuUpdate:	; 1 bytes @ 0x4
   358  00A4                     	ds	1
   359                           psect	cstackCOMMON,class=COMMON,space=1
   360                           global __pcstackCOMMON
   361  0070                     __pcstackCOMMON:
   362                           	global	?_interruptFct
   363  0070                     ?_interruptFct:	; 0 bytes @ 0x0
   364                           	global	??_interruptFct
   365  0070                     ??_interruptFct:	; 0 bytes @ 0x0
   366                           	global	?_putc232
   367  0070                     ?_putc232:	; 0 bytes @ 0x0
   368                           	global	?_put232
   369  0070                     ?_put232:	; 0 bytes @ 0x0
   370                           	global	?_goFlashage
   371  0070                     ?_goFlashage:	; 0 bytes @ 0x0
   372                           	global	?_xmodem_receive
   373  0070                     ?_xmodem_receive:	; 0 bytes @ 0x0
   374                           	global	?_main
   375  0070                     ?_main:	; 0 bytes @ 0x0
   376                           	global	?_get232
   377  0070                     ?_get232:	; 1 bytes @ 0x0
   378                           	global	?_hexToInt
   379  0070                     ?_hexToInt:	; 1 bytes @ 0x0
   380                           	global	?_decodeHexFile
   381  0070                     ?_decodeHexFile:	; 1 bytes @ 0x0
   382                           	global	?_litOctetStart
   383  0070                     ?_litOctetStart:	; 1 bytes @ 0x0
   384  0070                     	ds	1
   385                           	global	??_get232
   386  0071                     ??_get232:	; 0 bytes @ 0x1
   387                           	global	??_putc232
   388  0071                     ??_putc232:	; 0 bytes @ 0x1
   389                           	global	??_hexToInt
   390  0071                     ??_hexToInt:	; 0 bytes @ 0x1
   391                           	global	??_goFlashage
   392  0071                     ??_goFlashage:	; 0 bytes @ 0x1
   393                           	global	??_litOctetStart
   394  0071                     ??_litOctetStart:	; 0 bytes @ 0x1
   395                           	global	?___awdiv
   396  0071                     ?___awdiv:	; 2 bytes @ 0x1
   397                           	global	putc232@data
   398  0071                     putc232@data:	; 1 bytes @ 0x1
   399                           	global	___awdiv@divisor
   400  0071                     ___awdiv@divisor:	; 2 bytes @ 0x1
   401  0071                     	ds	1
   402                           	global	??_put232
   403  0072                     ??_put232:	; 0 bytes @ 0x2
   404                           	global	get232@pData
   405  0072                     get232@pData:	; 1 bytes @ 0x2
   406                           	global	hexToInt@retour
   407  0072                     hexToInt@retour:	; 1 bytes @ 0x2
   408  0072                     	ds	1
   409                           	global	put232@pData
   410  0073                     put232@pData:	; 1 bytes @ 0x3
   411                           	global	hexToInt@hexC
   412  0073                     hexToInt@hexC:	; 1 bytes @ 0x3
   413                           	global	get232@timeout
   414  0073                     get232@timeout:	; 2 bytes @ 0x3
   415                           	global	___awdiv@dividend
   416  0073                     ___awdiv@dividend:	; 2 bytes @ 0x3
   417  0073                     	ds	2
   418                           	global	??___awdiv
   419  0075                     ??___awdiv:	; 0 bytes @ 0x5
   420                           	global	goFlashage@index
   421  0075                     goFlashage@index:	; 1 bytes @ 0x5
   422  0075                     	ds	1
   423                           	global	___awdiv@counter
   424  0076                     ___awdiv@counter:	; 1 bytes @ 0x6
   425  0076                     	ds	1
   426                           	global	___awdiv@sign
   427  0077                     ___awdiv@sign:	; 1 bytes @ 0x7
   428  0077                     	ds	1
   429                           	global	___awdiv@quotient
   430  0078                     ___awdiv@quotient:	; 2 bytes @ 0x8
   431  0078                     	ds	2
   432                           	global	decodeHexFile@retour
   433  007A                     decodeHexFile@retour:	; 1 bytes @ 0xA
   434  007A                     	ds	1
   435                           	global	decodeHexFile@newChar
   436  007B                     decodeHexFile@newChar:	; 1 bytes @ 0xB
   437  007B                     	ds	1
   438                           psect	cstackBANK0,class=BANK0,space=1
   439                           global __pcstackBANK0
   440  0062                     __pcstackBANK0:
   441                           	global	??_decodeHexFile
   442  0062                     ??_decodeHexFile:	; 0 bytes @ 0x0
   443  0062                     	ds	4
   444                           	global	??_xmodem_receive
   445  0066                     ??_xmodem_receive:	; 0 bytes @ 0x4
   446  0066                     	ds	1
   447                           	global	xmodem_receive@index
   448  0067                     xmodem_receive@index:	; 2 bytes @ 0x5
   449  0067                     	ds	2
   450                           	global	xmodem_receive@onContinue
   451  0069                     xmodem_receive@onContinue:	; 1 bytes @ 0x7
   452  0069                     	ds	1
   453                           	global	xmodem_receive@loop
   454  006A                     xmodem_receive@loop:	; 1 bytes @ 0x8
   455  006A                     	ds	1
   456                           	global	??_main
   457  006B                     ??_main:	; 0 bytes @ 0x9
   458  006B                     	ds	1
   459 ;;Data sizes: Strings 82, constant 0, data 0, bss 67, persistent 0 stack 0
   460 ;;Auto spaces:   Size  Autos    Used
   461 ;; COMMON          14     12      13
   462 ;; BANK0           80     10      76
   463 ;; BANK1           32      5       5
   464                           
   465 ;;
   466 ;; Pointer list with targets:
   467                           
   468 ;; ?___awdiv	int  size(1) Largest target is 0
   469 ;;
   470 ;; put232@pData	PTR unsigned char  size(1) Largest target is 35
   471 ;;		 -> STR_4(CODE[6]), STR_3(CODE[10]), STR_2(CODE[31]), STR_1(CODE[35]), 
   472 ;;
   473 ;; get232@pData	PTR unsigned char  size(1) Largest target is 1
   474 ;;		 -> xmodem_receive@loop(BANK0[1]), received(BANK0[1]), data(BANK0[1]), 
   475 ;;
   476                           
   477                           
   478 ;;
   479 ;; Critical Paths under _main in COMMON
   480 ;;
   481 ;;   _xmodem_receive->_decodeHexFile
   482 ;;   _decodeHexFile->___awdiv
   483 ;;   _put232->_putc232
   484 ;;
   485 ;; Critical Paths under _interruptFct in COMMON
   486 ;;
   487 ;;   None.
   488 ;;
   489 ;; Critical Paths under _main in BANK0
   490 ;;
   491 ;;   _main->_xmodem_receive
   492 ;;   _xmodem_receive->_decodeHexFile
   493 ;;
   494 ;; Critical Paths under _interruptFct in BANK0
   495 ;;
   496 ;;   None.
   497 ;;
   498 ;; Critical Paths under _main in BANK1
   499 ;;
   500 ;;   None.
   501 ;;
   502 ;; Critical Paths under _interruptFct in BANK1
   503 ;;
   504 ;;   None.
   505                           
   506 ;;
   507 ;;Main: autosize = 0, tempsize = 1, incstack = 0, save=0
   508 ;;
   509                           
   510 ;;
   511 ;;Call Graph Tables:
   512 ;;
   513 ;; ---------------------------------------------------------------------------------
   514 ;; (Depth) Function   	        Calls       Base Space   Used Autos Params    Refs
   515 ;; ---------------------------------------------------------------------------------
   516 ;; (0) _main                                                 6     6      0    1970
   517 ;;                                              9 BANK0      1     1      0
   518 ;;                                              0 BANK1      5     5      0
   519 ;;                      _litOctetStart
   520 ;;                             _put232
   521 ;;                             _get232
   522 ;;                     _xmodem_receive
   523 ;; ---------------------------------------------------------------------------------
   524 ;; (1) _xmodem_receive                                       5     5      0    1534
   525 ;;                                              4 BANK0      5     5      0
   526 ;;                            _putc232
   527 ;;                             _get232
   528 ;;                      _decodeHexFile
   529 ;;                         _goFlashage
   530 ;; ---------------------------------------------------------------------------------
   531 ;; (2) _decodeHexFile                                        6     6      0     925
   532 ;;                                             10 COMMON     2     2      0
   533 ;;                                              0 BANK0      4     4      0
   534 ;;                           _hexToInt
   535 ;;                             _get232
   536 ;;                            ___awdiv
   537 ;; ---------------------------------------------------------------------------------
   538 ;; (1) _put232                                               2     2      0      96
   539 ;;                                              2 COMMON     2     2      0
   540 ;;                            _putc232
   541 ;; ---------------------------------------------------------------------------------
   542 ;; (3) ___awdiv                                              9     5      4     445
   543 ;;                                              1 COMMON     9     5      4
   544 ;; ---------------------------------------------------------------------------------
   545 ;; (1) _litOctetStart                                        0     0      0       0
   546 ;; ---------------------------------------------------------------------------------
   547 ;; (2) _goFlashage                                           5     5      0     161
   548 ;;                                              1 COMMON     5     5      0
   549 ;; ---------------------------------------------------------------------------------
   550 ;; (3) _hexToInt                                             3     3      0     130
   551 ;;                                              1 COMMON     3     3      0
   552 ;; ---------------------------------------------------------------------------------
   553 ;; (2) _putc232                                              1     1      0      31
   554 ;;                                              1 COMMON     1     1      0
   555 ;; ---------------------------------------------------------------------------------
   556 ;; (3) _get232                                               4     4      0      65
   557 ;;                                              1 COMMON     4     4      0
   558 ;; ---------------------------------------------------------------------------------
   559 ;; Estimated maximum stack depth 3
   560 ;; ---------------------------------------------------------------------------------
   561 ;; (Depth) Function   	        Calls       Base Space   Used Autos Params    Refs
   562 ;; ---------------------------------------------------------------------------------
   563 ;; (4) _interruptFct                                         1     1      0       0
   564 ;;                                              0 COMMON     1     1      0
   565 ;; ---------------------------------------------------------------------------------
   566 ;; Estimated maximum stack depth 4
   567 ;; ---------------------------------------------------------------------------------
   568                           
   569 ;; Call Graph Graphs:
   570                           
   571 ;; _main (ROOT)
   572 ;;   _litOctetStart
   573 ;;   _put232
   574 ;;     _putc232
   575 ;;   _get232
   576 ;;   _xmodem_receive
   577 ;;     _putc232
   578 ;;     _get232
   579 ;;     _decodeHexFile
   580 ;;       _hexToInt
   581 ;;       _get232
   582 ;;       ___awdiv
   583 ;;     _goFlashage
   584 ;;
   585 ;; _interruptFct (ROOT)
   586 ;;
   587                           
   588 ;; Address spaces:
   589                           
   590 ;;Name               Size   Autos  Total    Cost      Usage
   591 ;;BIGRAM              70      0       0       0        0.0%
   592 ;;EEDATA             100      0       0       0        0.0%
   593 ;;NULL                 0      0       0       0        0.0%
   594 ;;CODE                 0      0       0       0        0.0%
   595 ;;BITCOMMON            E      0       0       1        0.0%
   596 ;;BITSFR0              0      0       0       1        0.0%
   597 ;;SFR0                 0      0       0       1        0.0%
   598 ;;COMMON               E      C       D       2       92.9%
   599 ;;BITSFR1              0      0       0       2        0.0%
   600 ;;SFR1                 0      0       0       2        0.0%
   601 ;;BITSFR2              0      0       0       3        0.0%
   602 ;;SFR2                 0      0       0       3        0.0%
   603 ;;STACK                0      0       3       3        0.0%
   604 ;;BITSFR3              0      0       0       4        0.0%
   605 ;;SFR3                 0      0       0       4        0.0%
   606 ;;ABS                  0      0      5E       4        0.0%
   607 ;;BITBANK0            50      0       0       5        0.0%
   608 ;;BITSFR4              0      0       0       5        0.0%
   609 ;;SFR4                 0      0       0       5        0.0%
   610 ;;BANK0               50      A      4C       6       95.0%
   611 ;;BITSFR5              0      0       0       6        0.0%
   612 ;;SFR5                 0      0       0       6        0.0%
   613 ;;BITBANK1            20      0       0       7        0.0%
   614 ;;BITSFR6              0      0       0       7        0.0%
   615 ;;SFR6                 0      0       0       7        0.0%
   616 ;;BANK1               20      5       5       8       15.6%
   617 ;;BITSFR7              0      0       0       8        0.0%
   618 ;;SFR7                 0      0       0       8        0.0%
   619 ;;BITSFR8              0      0       0       9        0.0%
   620 ;;SFR8                 0      0       0       9        0.0%
   621 ;;DATA                 0      0      61       9        0.0%
   622 ;;BITSFR9              0      0       0      10        0.0%
   623 ;;SFR9                 0      0       0      10        0.0%
   624 ;;BITSFR10             0      0       0      11        0.0%
   625 ;;SFR10                0      0       0      11        0.0%
   626 ;;BITSFR11             0      0       0      12        0.0%
   627 ;;SFR11                0      0       0      12        0.0%
   628 ;;BITSFR12             0      0       0      13        0.0%
   629 ;;SFR12                0      0       0      13        0.0%
   630 ;;BITSFR13             0      0       0      14        0.0%
   631 ;;SFR13                0      0       0      14        0.0%
   632 ;;BITSFR14             0      0       0      15        0.0%
   633 ;;SFR14                0      0       0      15        0.0%
   634 ;;BITSFR15             0      0       0      16        0.0%
   635 ;;SFR15                0      0       0      16        0.0%
   636 ;;BITSFR16             0      0       0      17        0.0%
   637 ;;SFR16                0      0       0      17        0.0%
   638 ;;BITSFR17             0      0       0      18        0.0%
   639 ;;SFR17                0      0       0      18        0.0%
   640 ;;BITSFR18             0      0       0      19        0.0%
   641 ;;SFR18                0      0       0      19        0.0%
   642 ;;BITSFR19             0      0       0      20        0.0%
   643 ;;SFR19                0      0       0      20        0.0%
   644 ;;BITSFR20             0      0       0      21        0.0%
   645 ;;SFR20                0      0       0      21        0.0%
   646 ;;BITSFR21             0      0       0      22        0.0%
   647 ;;SFR21                0      0       0      22        0.0%
   648 ;;BITSFR22             0      0       0      23        0.0%
   649 ;;SFR22                0      0       0      23        0.0%
   650 ;;BITSFR23             0      0       0      24        0.0%
   651 ;;SFR23                0      0       0      24        0.0%
   652 ;;BITSFR24             0      0       0      25        0.0%
   653 ;;SFR24                0      0       0      25        0.0%
   654 ;;BITSFR25             0      0       0      26        0.0%
   655 ;;SFR25                0      0       0      26        0.0%
   656 ;;BITSFR26             0      0       0      27        0.0%
   657 ;;SFR26                0      0       0      27        0.0%
   658 ;;BITSFR27             0      0       0      28        0.0%
   659 ;;SFR27                0      0       0      28        0.0%
   660 ;;BITSFR28             0      0       0      29        0.0%
   661 ;;SFR28                0      0       0      29        0.0%
   662 ;;BITSFR29             0      0       0      30        0.0%
   663 ;;SFR29                0      0       0      30        0.0%
   664 ;;BITSFR30             0      0       0      31        0.0%
   665 ;;SFR30                0      0       0      31        0.0%
   666 ;;BITSFR31             0      0       0      32        0.0%
   667 ;;SFR31                0      0       0      32        0.0%
   668                           
   669                           	global	_main
   670                           psect	maintext,global,class=CODE,delta=2
   671                           global __pmaintext
   672  0266                     __pmaintext:
   673                           
   674 ;; *************** function _main *****************
   675 ;; Defined at:
   676 ;;		line 374 in file "C:\Users\avili_000\Dropbox\rpi yad\carte home automation\pic\bootloader\main.c"
   677 ;; Parameters:    Size  Location     Type
   678 ;;		None
   679 ;; Auto vars:     Size  Location     Type
   680 ;;  i               2    2[BANK1 ] unsigned int 
   681 ;;  tempoBoot       2    0[BANK1 ] unsigned int 
   682 ;;  secuUpdate      1    4[BANK1 ] unsigned char 
   683 ;; Return value:  Size  Location     Type
   684 ;;		None               void
   685 ;; Registers used:
   686 ;;		wreg, fsr0l, fsr0h, fsr1l, fsr1h, status,2, status,0, btemp+1, pclath, cstack
   687 ;; Tracked objects:
   688 ;;		On entry : 17F/0
   689 ;;		On exit  : 0/0
   690 ;;		Unchanged: 0/0
   691 ;; Data sizes:     COMMON   BANK0   BANK1
   692 ;;      Params:         0       0       0
   693 ;;      Locals:         0       0       5
   694 ;;      Temps:          0       1       0
   695 ;;      Totals:         0       1       5
   696 ;;Total ram usage:        6 bytes
   697 ;; Hardware stack levels required when called:    4
   698 ;; This function calls:
   699 ;;		_litOctetStart
   700 ;;		_put232
   701 ;;		_get232
   702 ;;		_xmodem_receive
   703 ;; This function is called by:
   704 ;;		Startup code after reset
   705 ;; This function uses a non-reentrant model
   706 ;;
   707                           psect	maintext
   708                           	file	"C:\Users\avili_000\Dropbox\rpi yad\carte home automation\pic\bootloader\main.c"
   709                           	line	374
   710                           	global	__size_of_main
   711  00E8                     	__size_of_main	equ	__end_of_main-_main
   712                           	
   713  0266                     _main:	
   714                           	opt	stack 12
   715                           ; Regs used in _main: [allreg]
   716                           	line	376
   717                           	
   718  0266                     l4788:	
   719                           ;main.c: 375: unsigned int i;
   720                           ;main.c: 376: unsigned int tempoBoot=0;
   721  0266  0021               	movlb 1	; select bank1
   722  0267  01A0               	clrf	(main@tempoBoot)^080h
   723  0268  01A1               	clrf	(main@tempoBoot+1)^080h
   724                           	line	377
   725                           	
   726  0269                     l4790:	
   727                           ;main.c: 377: unsigned char secuUpdate = 0;
   728  0269  01A4               	clrf	(main@secuUpdate)^080h
   729                           	line	379
   730                           	
   731  026A                     l4792:	
   732                           ;main.c: 379: PEIE = 0;
   733  026A  130B               	bcf	(94/8),(94)&7
   734                           	line	380
   735                           	
   736  026B                     l4794:	
   737                           ;main.c: 380: GIE = 0;
   738  026B  138B               	bcf	(95/8),(95)&7
   739                           	line	382
   740                           	
   741  026C                     l4796:	
   742                           ;main.c: 382: retourXReceive=0;
   743  026C  0020               	movlb 0	; select bank0
   744  026D  01DE               	clrf	(_retourXReceive)
   745                           	line	383
   746                           	
   747  026E                     l4798:	
   748                           ;main.c: 383: data =0;
   749  026E  01E0               	clrf	(_data)
   750                           	line	384
   751                           	
   752  026F                     l4800:	
   753                           ;main.c: 384: counter=0;
   754  026F  01DA               	clrf	(_counter)
   755                           	line	385
   756                           ;main.c: 385: iAdresseBase=0;
   757  0270  01D6               	clrf	(_iAdresseBase)
   758  0271  01D7               	clrf	(_iAdresseBase+1)
   759                           	line	386
   760                           	
   761  0272                     l4802:	
   762                           ;main.c: 386: nbData=0;
   763  0272  01DB               	clrf	(_nbData)
   764                           	line	388
   765                           ;main.c: 388: ANSELA = 0;
   766  0273  0023               	movlb 3	; select bank3
   767  0274  018C               	clrf	(396)^0180h	;volatile
   768                           	line	389
   769                           ;main.c: 389: TRISA = 0;
   770  0275  0021               	movlb 1	; select bank1
   771  0276  018C               	clrf	(140)^080h	;volatile
   772                           	line	391
   773                           	
   774  0277                     l4804:	
   775                           ;main.c: 391: OSCCON = 0b11110000;
   776  0277  30F0               	movlw	(0F0h)
   777  0278  0099               	movwf	(153)^080h	;volatile
   778                           	line	392
   779                           ;main.c: 392: while(!HFIOFS);
   780  0279  2A7A               	goto	l1264
   781                           	
   782  027A                     l1265:	
   783                           	
   784  027A                     l1264:	
   785  027A  1C1A               	btfss	(1232/8)^080h,(1232)&7
   786  027B  2A7D               	goto	u3931
   787  027C  2A7E               	goto	u3930
   788  027D                     u3931:
   789  027D  2A7A               	goto	l1264
   790  027E                     u3930:
   791                           	
   792  027E                     l1266:	
   793                           	line	394
   794                           ;main.c: 394: PEIE = 0;
   795  027E  130B               	bcf	(94/8),(94)&7
   796                           	line	395
   797                           ;main.c: 395: GIE = 0;
   798  027F  138B               	bcf	(95/8),(95)&7
   799                           	line	397
   800                           ;main.c: 397: SPEN = 0;
   801  0280  0023               	movlb 3	; select bank3
   802  0281  139D               	bcf	(3311/8)^0180h,(3311)&7
   803                           	line	398
   804                           ;main.c: 398: CREN = 0;
   805  0282  121D               	bcf	(3308/8)^0180h,(3308)&7
   806                           	line	399
   807                           ;main.c: 399: TXEN = 0;
   808  0283  129E               	bcf	(3317/8)^0180h,(3317)&7
   809                           	line	413
   810                           ;main.c: 413: TRISA1 = 1;
   811  0284  0021               	movlb 1	; select bank1
   812  0285  148C               	bsf	(1121/8)^080h,(1121)&7
   813                           	line	414
   814                           ;main.c: 414: RXDTSEL = 0;
   815  0286  0022               	movlb 2	; select bank2
   816  0287  139D               	bcf	(2287/8)^0100h,(2287)&7
   817                           	line	415
   818                           ;main.c: 415: TXCKSEL = 0;
   819  0288  111D               	bcf	(2282/8)^0100h,(2282)&7
   820                           	line	423
   821                           	
   822  0289                     l4806:	
   823                           ;main.c: 423: SPBRG = 16;
   824  0289  3010               	movlw	(010h)
   825  028A  0023               	movlb 3	; select bank3
   826  028B  009B               	movwf	(411)^0180h	;volatile
   827                           	line	424
   828                           	
   829  028C                     l4808:	
   830                           ;main.c: 424: BRG16 = 0;
   831  028C  119F               	bcf	(3323/8)^0180h,(3323)&7
   832                           	line	426
   833                           	
   834  028D                     l4810:	
   835                           ;main.c: 426: SPEN = 1;
   836  028D  179D               	bsf	(3311/8)^0180h,(3311)&7
   837                           	line	427
   838                           	
   839  028E                     l4812:	
   840                           ;main.c: 427: CREN = 1;
   841  028E  161D               	bsf	(3308/8)^0180h,(3308)&7
   842                           	line	428
   843                           	
   844  028F                     l4814:	
   845                           ;main.c: 428: TXEN = 1;
   846  028F  169E               	bsf	(3317/8)^0180h,(3317)&7
   847                           	line	429
   848                           	
   849  0290                     l4816:	
   850                           ;main.c: 429: BRGH = 1;
   851  0290  151E               	bsf	(3314/8)^0180h,(3314)&7
   852                           	line	430
   853                           	
   854  0291                     l4818:	
   855                           ;main.c: 430: SYNC = 0;
   856  0291  121E               	bcf	(3316/8)^0180h,(3316)&7
   857                           	line	433
   858                           	
   859  0292                     l4820:	
   860                           ;main.c: 433: received = litOctetStart();
   861  0292  3184  24EB  3182   	fcall	_litOctetStart
   862  0295  0020               	movlb 0	; select bank0
   863  0296  00EB               	movwf	(??_main+0)+0
   864  0297  086B               	movf	(??_main+0)+0,w
   865  0298  00E1               	movwf	(_received)
   866                           	line	434
   867                           	
   868  0299                     l4822:	
   869                           ;main.c: 434: if (received == 'D' ) {
   870  0299  0861               	movf	(_received),w
   871  029A  3A44               	xorlw	044h&0ffh
   872  029B  1D03               	skipz
   873  029C  2A9E               	goto	u3941
   874  029D  2A9F               	goto	u3940
   875  029E                     u3941:
   876  029E  2AA1               	goto	l4826
   877  029F                     u3940:
   878                           	line	436
   879                           	
   880  029F                     l4824:	
   881                           # 436 "C:\Users\avili_000\Dropbox\rpi yad\carte home automation\pic\bootloader\main.c"
   882  029F  2D00                 goto 0x500 ;#
   883                           psect	maintext
   884  02A0  2AA1               	goto	l4826
   885                           	line	438
   886                           	
   887  02A1                     l1267:	
   888                           	line	440
   889                           	
   890  02A1                     l4826:	
   891                           ;main.c: 438: }
   892                           ;main.c: 440: i = 0;
   893  02A1  0021               	movlb 1	; select bank1
   894  02A2  01A2               	clrf	(main@i)^080h
   895  02A3  01A3               	clrf	(main@i+1)^080h
   896                           	line	441
   897                           ;main.c: 441: while(i<65000) {
   898  02A4  2B20               	goto	l4864
   899                           	
   900  02A5                     l1269:	
   901                           	line	442
   902                           ;main.c: 442: LATA5 = ~RA5;
   903  02A5  0020               	movlb 0	; select bank0
   904  02A6  1E8C               	btfss	(101/8),(101)&7
   905  02A7  2AA9               	goto	u3951
   906  02A8  2AAC               	goto	u3950
   907                           	
   908  02A9                     u3951:
   909  02A9  0022               	movlb 2	; select bank2
   910  02AA  168C               	bsf	(2149/8)^0100h,(2149)&7
   911  02AB  2AAE               	goto	u3964
   912  02AC                     u3950:
   913  02AC  0022               	movlb 2	; select bank2
   914  02AD  128C               	bcf	(2149/8)^0100h,(2149)&7
   915  02AE                     u3964:
   916                           	line	443
   917                           	
   918  02AE                     l4828:	
   919                           ;main.c: 443: put232((char*)"Enter yad to update the firmware\r\n");
   920  02AE  301C               	movlw	(STR_1|8000h)&0ffh
   921  02AF  3184  249C  3182   	fcall	_put232
   922                           	line	444
   923                           	
   924  02B2                     l4830:	
   925                           ;main.c: 444: if (get232(&received)) {
   926  02B2  3061               	movlw	(_received)&0ffh
   927  02B3  3184  246E  3182   	fcall	_get232
   928  02B6  3A00               	xorlw	0&0ffh
   929  02B7  1903               	skipnz
   930  02B8  2ABA               	goto	u3971
   931  02B9  2ABB               	goto	u3970
   932  02BA                     u3971:
   933  02BA  2B08               	goto	l4856
   934  02BB                     u3970:
   935                           	line	450
   936                           	
   937  02BB                     l4832:	
   938                           ;main.c: 445: if (((secuUpdate==0) && (received == 'y'))
   939                           ;main.c: 446: || ((secuUpdate==1) && (received == 'a'))
   940                           ;main.c: 447: || ((secuUpdate==2) && (received == 'd'))
   941                           ;main.c: 450: ) {
   942  02BB  0021               	movlb 1	; select bank1
   943  02BC  08A4               	movf	(main@secuUpdate)^080h,f
   944  02BD  1D03               	skipz
   945  02BE  2AC0               	goto	u3981
   946  02BF  2AC1               	goto	u3980
   947  02C0                     u3981:
   948  02C0  2AC9               	goto	l4836
   949  02C1                     u3980:
   950                           	
   951  02C1                     l4834:	
   952  02C1  0020               	movlb 0	; select bank0
   953  02C2  0861               	movf	(_received),w
   954  02C3  3A79               	xorlw	079h&0ffh
   955  02C4  1903               	skipnz
   956  02C5  2AC7               	goto	u3991
   957  02C6  2AC8               	goto	u3990
   958  02C7                     u3991:
   959  02C7  2AE7               	goto	l4844
   960  02C8                     u3990:
   961  02C8  2AC9               	goto	l4836
   962                           	
   963  02C9                     l1275:	
   964                           	
   965  02C9                     l4836:	
   966  02C9  0021               	movlb 1	; select bank1
   967  02CA  0824               	movf	(main@secuUpdate)^080h,w
   968  02CB  3A01               	xorlw	01h&0ffh
   969  02CC  1D03               	skipz
   970  02CD  2ACF               	goto	u4001
   971  02CE  2AD0               	goto	u4000
   972  02CF                     u4001:
   973  02CF  2AD8               	goto	l4840
   974  02D0                     u4000:
   975                           	
   976  02D0                     l4838:	
   977  02D0  0020               	movlb 0	; select bank0
   978  02D1  0861               	movf	(_received),w
   979  02D2  3A61               	xorlw	061h&0ffh
   980  02D3  1903               	skipnz
   981  02D4  2AD6               	goto	u4011
   982  02D5  2AD7               	goto	u4010
   983  02D6                     u4011:
   984  02D6  2AE7               	goto	l4844
   985  02D7                     u4010:
   986  02D7  2AD8               	goto	l4840
   987                           	
   988  02D8                     l1277:	
   989                           	
   990  02D8                     l4840:	
   991  02D8  0021               	movlb 1	; select bank1
   992  02D9  0824               	movf	(main@secuUpdate)^080h,w
   993  02DA  3A02               	xorlw	02h&0ffh
   994  02DB  1D03               	skipz
   995  02DC  2ADE               	goto	u4021
   996  02DD  2ADF               	goto	u4020
   997  02DE                     u4021:
   998  02DE  2B00               	goto	l1271
   999  02DF                     u4020:
  1000                           	
  1001  02DF                     l4842:	
  1002  02DF  0020               	movlb 0	; select bank0
  1003  02E0  0861               	movf	(_received),w
  1004  02E1  3A64               	xorlw	064h&0ffh
  1005  02E2  1D03               	skipz
  1006  02E3  2AE5               	goto	u4031
  1007  02E4  2AE6               	goto	u4030
  1008  02E5                     u4031:
  1009  02E5  2B00               	goto	l1271
  1010  02E6                     u4030:
  1011  02E6  2AE7               	goto	l4844
  1012                           	
  1013  02E7                     l1273:	
  1014                           	line	451
  1015                           	
  1016  02E7                     l4844:	
  1017                           ;main.c: 451: secuUpdate++;
  1018  02E7  3001               	movlw	(01h)
  1019  02E8  00EB               	movwf	(??_main+0)+0
  1020  02E9  086B               	movf	(??_main+0)+0,w
  1021  02EA  0021               	movlb 1	; select bank1
  1022  02EB  07A4               	addwf	(main@secuUpdate)^080h,f
  1023                           	line	452
  1024                           	
  1025  02EC                     l4846:	
  1026                           ;main.c: 452: if (secuUpdate > 2) {
  1027  02EC  3003               	movlw	(03h)
  1028  02ED  0224               	subwf	(main@secuUpdate)^080h,w
  1029  02EE  1C03               	skipc
  1030  02EF  2AF1               	goto	u4041
  1031  02F0  2AF2               	goto	u4040
  1032  02F1                     u4041:
  1033  02F1  2B03               	goto	l4854
  1034  02F2                     u4040:
  1035                           	line	453
  1036                           	
  1037  02F2                     l4848:	
  1038                           ;main.c: 453: put232((char*)"Waiting for xmodem transfert\r\n");
  1039  02F2  303F               	movlw	(STR_2|8000h)&0ffh
  1040  02F3  3184  249C  3182   	fcall	_put232
  1041                           	line	454
  1042                           	
  1043  02F6                     l4850:	
  1044                           ;main.c: 454: xmodem_receive();
  1045  02F6  3181  2171  3182   	fcall	_xmodem_receive
  1046                           	line	455
  1047                           	
  1048  02F9                     l4852:	
  1049                           ;main.c: 455: tempoBoot = 501;
  1050  02F9  30F5               	movlw	low(01F5h)
  1051  02FA  0021               	movlb 1	; select bank1
  1052  02FB  00A0               	movwf	(main@tempoBoot)^080h
  1053  02FC  3001               	movlw	high(01F5h)
  1054  02FD  00A1               	movwf	((main@tempoBoot)^080h)+1
  1055  02FE  2B03               	goto	l4854
  1056                           	line	456
  1057                           	
  1058  02FF                     l1278:	
  1059                           	line	457
  1060                           ;main.c: 456: }
  1061                           ;main.c: 457: } else {
  1062  02FF  2B03               	goto	l4854
  1063                           	
  1064  0300                     l1271:	
  1065                           	line	458
  1066                           ;main.c: 458: secuUpdate = 0;
  1067  0300  0021               	movlb 1	; select bank1
  1068  0301  01A4               	clrf	(main@secuUpdate)^080h
  1069  0302  2B03               	goto	l4854
  1070                           	line	459
  1071                           	
  1072  0303                     l1279:	
  1073                           	line	460
  1074                           	
  1075  0303                     l4854:	
  1076                           ;main.c: 459: }
  1077                           ;main.c: 460: TXREG = received;
  1078  0303  0020               	movlb 0	; select bank0
  1079  0304  0861               	movf	(_received),w
  1080  0305  0023               	movlb 3	; select bank3
  1081  0306  009A               	movwf	(410)^0180h	;volatile
  1082                           	line	461
  1083                           ;main.c: 461: } else {
  1084  0307  2B0D               	goto	l1280
  1085                           	
  1086  0308                     l1270:	
  1087                           	line	462
  1088                           	
  1089  0308                     l4856:	
  1090                           ;main.c: 462: tempoBoot++;
  1091  0308  3001               	movlw	low(01h)
  1092  0309  0021               	movlb 1	; select bank1
  1093  030A  07A0               	addwf	(main@tempoBoot)^080h,f
  1094  030B  3000               	movlw	high(01h)
  1095  030C  3DA1               	addwfc	(main@tempoBoot+1)^080h,f
  1096                           	line	463
  1097                           	
  1098  030D                     l1280:	
  1099                           	line	464
  1100                           ;main.c: 463: }
  1101                           ;main.c: 464: if (tempoBoot > 500) {
  1102  030D  3001               	movlw	high(01F5h)
  1103  030E  0021               	movlb 1	; select bank1
  1104  030F  0221               	subwf	(main@tempoBoot+1)^080h,w
  1105  0310  30F5               	movlw	low(01F5h)
  1106  0311  1903               	skipnz
  1107  0312  0220               	subwf	(main@tempoBoot)^080h,w
  1108  0313  1C03               	skipc
  1109  0314  2B16               	goto	u4051
  1110  0315  2B17               	goto	u4050
  1111  0316                     u4051:
  1112  0316  2B20               	goto	l4864
  1113  0317                     u4050:
  1114                           	line	465
  1115                           	
  1116  0317                     l4858:	
  1117                           ;main.c: 465: put232((char*)"timeout\r\n");
  1118  0317  305E               	movlw	(STR_3|8000h)&0ffh
  1119  0318  3184  249C  3182   	fcall	_put232
  1120                           	line	466
  1121                           	
  1122  031B                     l4860:	
  1123                           ;main.c: 466: CREN = 0;
  1124  031B  0023               	movlb 3	; select bank3
  1125  031C  121D               	bcf	(3308/8)^0180h,(3308)&7
  1126                           	line	468
  1127                           	
  1128  031D                     l4862:	
  1129                           # 468 "C:\Users\avili_000\Dropbox\rpi yad\carte home automation\pic\bootloader\main.c"
  1130  031D  2D00                  goto 0x500 ;#
  1131                           psect	maintext
  1132  031E  2B20               	goto	l4864
  1133                           	line	471
  1134                           	
  1135  031F                     l1281:	
  1136  031F  2B20               	goto	l4864
  1137                           	line	472
  1138                           	
  1139  0320                     l1268:	
  1140                           	line	441
  1141                           	
  1142  0320                     l4864:	
  1143  0320  30FD               	movlw	high(0FDE8h)
  1144  0321  0021               	movlb 1	; select bank1
  1145  0322  0223               	subwf	(main@i+1)^080h,w
  1146  0323  30E8               	movlw	low(0FDE8h)
  1147  0324  1903               	skipnz
  1148  0325  0222               	subwf	(main@i)^080h,w
  1149  0326  1C03               	skipc
  1150  0327  2B29               	goto	u4061
  1151  0328  2B2A               	goto	u4060
  1152  0329                     u4061:
  1153  0329  2AA5               	goto	l1269
  1154  032A                     u4060:
  1155  032A  2B2B               	goto	l4866
  1156                           	
  1157  032B                     l1282:	
  1158                           	line	479
  1159                           	
  1160  032B                     l4866:	
  1161                           ;main.c: 471: }
  1162                           ;main.c: 472: }
  1163                           ;main.c: 479: for (i=0; i< 65000; i++);
  1164  032B  01A2               	clrf	(main@i)^080h
  1165  032C  01A3               	clrf	(main@i+1)^080h
  1166                           	
  1167  032D                     l4868:	
  1168  032D  30FD               	movlw	high(0FDE8h)
  1169  032E  0223               	subwf	(main@i+1)^080h,w
  1170  032F  30E8               	movlw	low(0FDE8h)
  1171  0330  1903               	skipnz
  1172  0331  0222               	subwf	(main@i)^080h,w
  1173  0332  1C03               	skipc
  1174  0333  2B35               	goto	u4071
  1175  0334  2B36               	goto	u4070
  1176  0335                     u4071:
  1177  0335  2B38               	goto	l4872
  1178  0336                     u4070:
  1179  0336  2B46               	goto	l4874
  1180                           	
  1181  0337                     l4870:	
  1182  0337  2B46               	goto	l4874
  1183                           	
  1184  0338                     l1283:	
  1185                           	
  1186  0338                     l4872:	
  1187  0338  3001               	movlw	low(01h)
  1188  0339  07A2               	addwf	(main@i)^080h,f
  1189  033A  3000               	movlw	high(01h)
  1190  033B  3DA3               	addwfc	(main@i+1)^080h,f
  1191  033C  30FD               	movlw	high(0FDE8h)
  1192  033D  0223               	subwf	(main@i+1)^080h,w
  1193  033E  30E8               	movlw	low(0FDE8h)
  1194  033F  1903               	skipnz
  1195  0340  0222               	subwf	(main@i)^080h,w
  1196  0341  1C03               	skipc
  1197  0342  2B44               	goto	u4081
  1198  0343  2B45               	goto	u4080
  1199  0344                     u4081:
  1200  0344  2B38               	goto	l4872
  1201  0345                     u4080:
  1202  0345  2B46               	goto	l4874
  1203                           	
  1204  0346                     l1284:	
  1205                           	line	481
  1206                           	
  1207  0346                     l4874:	
  1208                           ;main.c: 481: put232((char*)"\nBye\n");
  1209  0346  3068               	movlw	(STR_4|8000h)&0ffh
  1210  0347  3184  249C  3182   	fcall	_put232
  1211                           	line	483
  1212                           	
  1213  034A                     l4876:	
  1214                           ;main.c: 483: RA5 = 0;
  1215  034A  0020               	movlb 0	; select bank0
  1216  034B  128C               	bcf	(101/8),(101)&7
  1217                           	line	485
  1218                           	
  1219  034C                     l4878:	
  1220                           # 485 "C:\Users\avili_000\Dropbox\rpi yad\carte home automation\pic\bootloader\main.c"
  1221  034C  2D00                goto 0x500 ;#
  1222                           psect	maintext
  1223                           	line	487
  1224                           	
  1225  034D                     l1285:	
  1226                           	global	start
  1227  034D  280D               	ljmp	start
  1228                           	opt stack 0
  1229                           GLOBAL	__end_of_main
  1230  034E                     	__end_of_main:
  1231 ;; =============== function _main ends ============
  1232                           
  1233                           	signat	_main,88
  1234                           	global	_xmodem_receive
  1235                           psect	text384,local,class=CODE,delta=2
  1236                           global __ptext384
  1237  0171                     __ptext384:
  1238                           
  1239 ;; *************** function _xmodem_receive *****************
  1240 ;; Defined at:
  1241 ;;		line 264 in file "C:\Users\avili_000\Dropbox\rpi yad\carte home automation\pic\bootloader\main.c"
  1242 ;; Parameters:    Size  Location     Type
  1243 ;;		None
  1244 ;; Auto vars:     Size  Location     Type
  1245 ;;  index           2    5[BANK0 ] unsigned int 
  1246 ;;  loop            1    8[BANK0 ] unsigned char 
  1247 ;;  onContinue      1    7[BANK0 ] unsigned char 
  1248 ;; Return value:  Size  Location     Type
  1249 ;;		None               void
  1250 ;; Registers used:
  1251 ;;		wreg, fsr0l, fsr0h, fsr1l, fsr1h, status,2, status,0, btemp+1, pclath, cstack
  1252 ;; Tracked objects:
  1253 ;;		On entry : 0/0
  1254 ;;		On exit  : 0/0
  1255 ;;		Unchanged: 0/0
  1256 ;; Data sizes:     COMMON   BANK0   BANK1
  1257 ;;      Params:         0       0       0
  1258 ;;      Locals:         0       4       0
  1259 ;;      Temps:          0       1       0
  1260 ;;      Totals:         0       5       0
  1261 ;;Total ram usage:        5 bytes
  1262 ;; Hardware stack levels used:    1
  1263 ;; Hardware stack levels required when called:    3
  1264 ;; This function calls:
  1265 ;;		_putc232
  1266 ;;		_get232
  1267 ;;		_decodeHexFile
  1268 ;;		_goFlashage
  1269 ;; This function is called by:
  1270 ;;		_main
  1271 ;; This function uses a non-reentrant model
  1272 ;;
  1273                           psect	text384
  1274                           	file	"C:\Users\avili_000\Dropbox\rpi yad\carte home automation\pic\bootloader\main.c"
  1275                           	line	264
  1276                           	global	__size_of_xmodem_receive
  1277  00F5                     	__size_of_xmodem_receive	equ	__end_of_xmodem_receive-_xmodem_receive
  1278                           	
  1279  0171                     _xmodem_receive:	
  1280                           	opt	stack 12
  1281                           ; Regs used in _xmodem_receive: [allreg]
  1282                           	line	265
  1283                           	
  1284  0171                     l4700:	
  1285                           ;main.c: 265: unsigned char onContinue=0;
  1286  0171  0020               	movlb 0	; select bank0
  1287  0172  01E9               	clrf	(xmodem_receive@onContinue)
  1288                           	line	267
  1289                           	
  1290  0173                     l4702:	
  1291                           ;main.c: 266: unsigned char loop;
  1292                           ;main.c: 267: unsigned int index=0;
  1293  0173  01E7               	clrf	(xmodem_receive@index)
  1294  0174  01E8               	clrf	(xmodem_receive@index+1)
  1295                           	line	269
  1296                           	
  1297  0175                     l4704:	
  1298                           ;main.c: 269: state = 0;
  1299  0175  01DF               	clrf	(_state)
  1300                           	line	272
  1301                           	
  1302  0176                     l4706:	
  1303                           ;main.c: 272: for (index=0x500; index<0x7FF; index+=16) {
  1304  0176  3000               	movlw	low(0500h)
  1305  0177  00E7               	movwf	(xmodem_receive@index)
  1306  0178  3005               	movlw	high(0500h)
  1307  0179  00E8               	movwf	((xmodem_receive@index))+1
  1308                           	
  1309  017A                     l4708:	
  1310  017A  3007               	movlw	high(07FFh)
  1311  017B  0268               	subwf	(xmodem_receive@index+1),w
  1312  017C  30FF               	movlw	low(07FFh)
  1313  017D  1903               	skipnz
  1314  017E  0267               	subwf	(xmodem_receive@index),w
  1315  017F  1C03               	skipc
  1316  0180  2982               	goto	u3751
  1317  0181  2983               	goto	u3750
  1318  0182                     u3751:
  1319  0182  2985               	goto	l4712
  1320  0183                     u3750:
  1321  0183  29AE               	goto	l1234
  1322                           	
  1323  0184                     l4710:	
  1324  0184  29AE               	goto	l1234
  1325                           	
  1326  0185                     l1233:	
  1327                           	line	273
  1328                           	
  1329  0185                     l4712:	
  1330                           ;main.c: 273: EEADR = index;
  1331  0185  0868               	movf	(xmodem_receive@index+1),w
  1332  0186  0023               	movlb 3	; select bank3
  1333  0187  0192               	clrf	(401+1)^0180h	;volatile
  1334  0188  0792               	addwf	(401+1)^0180h	;volatile
  1335  0189  0020               	movlb 0	; select bank0
  1336  018A  0867               	movf	(xmodem_receive@index),w
  1337  018B  0023               	movlb 3	; select bank3
  1338  018C  0191               	clrf	(401)^0180h	;volatile
  1339  018D  0791               	addwf	(401)^0180h	;volatile
  1340                           
  1341                           	line	274
  1342                           	
  1343  018E                     l4714:	
  1344                           ;main.c: 274: CFGS = 0;
  1345  018E  1315               	bcf	(3246/8)^0180h,(3246)&7
  1346                           	line	275
  1347                           	
  1348  018F                     l4716:	
  1349                           ;main.c: 275: EEPGD = 1;
  1350  018F  1795               	bsf	(3247/8)^0180h,(3247)&7
  1351                           	line	276
  1352                           	
  1353  0190                     l4718:	
  1354                           ;main.c: 276: FREE = 1;
  1355  0190  1615               	bsf	(3244/8)^0180h,(3244)&7
  1356                           	line	277
  1357                           	
  1358  0191                     l4720:	
  1359                           ;main.c: 277: WREN = 1;
  1360  0191  1515               	bsf	(3242/8)^0180h,(3242)&7
  1361                           	line	278
  1362                           	
  1363  0192                     l4722:	
  1364                           ;main.c: 278: EECON2=0x55;
  1365  0192  3055               	movlw	(055h)
  1366  0193  0096               	movwf	(406)^0180h	;volatile
  1367                           	line	279
  1368                           	
  1369  0194                     l4724:	
  1370                           ;main.c: 279: EECON2=0xAA;
  1371  0194  30AA               	movlw	(0AAh)
  1372  0195  0096               	movwf	(406)^0180h	;volatile
  1373                           	line	280
  1374                           	
  1375  0196                     l4726:	
  1376                           ;main.c: 280: WR = 1;
  1377  0196  1495               	bsf	(3241/8)^0180h,(3241)&7
  1378                           	line	282
  1379                           	
  1380  0197                     l4728:	
  1381                           # 282 "C:\Users\avili_000\Dropbox\rpi yad\carte home automation\pic\bootloader\main.c"
  1382  0197  0000                  nop ;#
  1383                           psect	text384
  1384                           	line	283
  1385                           	
  1386  0198                     l4730:	
  1387                           # 283 "C:\Users\avili_000\Dropbox\rpi yad\carte home automation\pic\bootloader\main.c"
  1388  0198  0000                  nop ;#
  1389                           psect	text384
  1390                           	line	285
  1391                           ;main.c: 285: while(WR);
  1392  0199  299A               	goto	l1235
  1393                           	
  1394  019A                     l1236:	
  1395                           	
  1396  019A                     l1235:	
  1397  019A  0023               	movlb 3	; select bank3
  1398  019B  1895               	btfsc	(3241/8)^0180h,(3241)&7
  1399  019C  299E               	goto	u3761
  1400  019D  299F               	goto	u3760
  1401  019E                     u3761:
  1402  019E  299A               	goto	l1235
  1403  019F                     u3760:
  1404  019F  29A0               	goto	l4732
  1405                           	
  1406  01A0                     l1237:	
  1407                           	line	272
  1408                           	
  1409  01A0                     l4732:	
  1410  01A0  3010               	movlw	low(010h)
  1411  01A1  0020               	movlb 0	; select bank0
  1412  01A2  07E7               	addwf	(xmodem_receive@index),f
  1413  01A3  3000               	movlw	high(010h)
  1414  01A4  3DE8               	addwfc	(xmodem_receive@index+1),f
  1415  01A5  3007               	movlw	high(07FFh)
  1416  01A6  0268               	subwf	(xmodem_receive@index+1),w
  1417  01A7  30FF               	movlw	low(07FFh)
  1418  01A8  1903               	skipnz
  1419  01A9  0267               	subwf	(xmodem_receive@index),w
  1420  01AA  1C03               	skipc
  1421  01AB  29AD               	goto	u3771
  1422  01AC  29AE               	goto	u3770
  1423  01AD                     u3771:
  1424  01AD  2985               	goto	l4712
  1425  01AE                     u3770:
  1426                           	
  1427  01AE                     l1234:	
  1428                           	line	289
  1429                           ;main.c: 286: }
  1430                           ;main.c: 289: EEPGD = 1;
  1431  01AE  0023               	movlb 3	; select bank3
  1432  01AF  1795               	bsf	(3247/8)^0180h,(3247)&7
  1433                           	line	290
  1434                           ;main.c: 290: WREN = 1;
  1435  01B0  1515               	bsf	(3242/8)^0180h,(3242)&7
  1436                           	line	291
  1437                           ;main.c: 291: CFGS = 0;
  1438  01B1  1315               	bcf	(3246/8)^0180h,(3246)&7
  1439                           	line	292
  1440                           ;main.c: 292: LWLO = 1;
  1441  01B2  1695               	bsf	(3245/8)^0180h,(3245)&7
  1442                           	line	295
  1443                           	
  1444  01B3                     l4734:	
  1445                           ;main.c: 295: onContinue = 60;
  1446  01B3  303C               	movlw	(03Ch)
  1447  01B4  0020               	movlb 0	; select bank0
  1448  01B5  00E6               	movwf	(??_xmodem_receive+0)+0
  1449  01B6  0866               	movf	(??_xmodem_receive+0)+0,w
  1450  01B7  00E9               	movwf	(xmodem_receive@onContinue)
  1451                           	line	296
  1452                           ;main.c: 296: while(onContinue) {
  1453  01B8  29F5               	goto	l4750
  1454                           	
  1455  01B9                     l1239:	
  1456                           	line	297
  1457                           ;main.c: 297: state=0;
  1458  01B9  01DF               	clrf	(_state)
  1459                           	line	298
  1460                           ;main.c: 298: LATA5 = ~RA5;
  1461  01BA  1E8C               	btfss	(101/8),(101)&7
  1462  01BB  29BD               	goto	u3781
  1463  01BC  29C0               	goto	u3780
  1464                           	
  1465  01BD                     u3781:
  1466  01BD  0022               	movlb 2	; select bank2
  1467  01BE  168C               	bsf	(2149/8)^0100h,(2149)&7
  1468  01BF  29C2               	goto	u3794
  1469  01C0                     u3780:
  1470  01C0  0022               	movlb 2	; select bank2
  1471  01C1  128C               	bcf	(2149/8)^0100h,(2149)&7
  1472  01C2                     u3794:
  1473                           	line	299
  1474                           	
  1475  01C2                     l4736:	
  1476                           ;main.c: 299: putc232(0x15);
  1477  01C2  3015               	movlw	(015h)
  1478  01C3  3184  24CB  3181   	fcall	_putc232
  1479                           	line	300
  1480                           ;main.c: 300: while(TXIF == 0);
  1481  01C6  29C7               	goto	l1240
  1482                           	
  1483  01C7                     l1241:	
  1484                           	
  1485  01C7                     l1240:	
  1486  01C7  0020               	movlb 0	; select bank0
  1487  01C8  1E11               	btfss	(140/8),(140)&7
  1488  01C9  29CB               	goto	u3801
  1489  01CA  29CC               	goto	u3800
  1490  01CB                     u3801:
  1491  01CB  29C7               	goto	l1240
  1492  01CC                     u3800:
  1493  01CC  29CD               	goto	l4738
  1494                           	
  1495  01CD                     l1242:	
  1496                           	line	301
  1497                           	
  1498  01CD                     l4738:	
  1499                           ;main.c: 301: if (get232(&received)) {
  1500  01CD  3061               	movlw	(_received)&0ffh
  1501  01CE  3184  246E  3181   	fcall	_get232
  1502  01D1  3A00               	xorlw	0&0ffh
  1503  01D2  1903               	skipnz
  1504  01D3  29D5               	goto	u3811
  1505  01D4  29D6               	goto	u3810
  1506  01D5                     u3811:
  1507  01D5  29E0               	goto	l4744
  1508  01D6                     u3810:
  1509                           	line	302
  1510                           	
  1511  01D6                     l4740:	
  1512                           ;main.c: 302: if (received == 0x01) {
  1513  01D6  0020               	movlb 0	; select bank0
  1514  01D7  0861               	movf	(_received),w
  1515  01D8  3A01               	xorlw	01h&0ffh
  1516  01D9  1D03               	skipz
  1517  01DA  29DC               	goto	u3821
  1518  01DB  29DD               	goto	u3820
  1519  01DC                     u3821:
  1520  01DC  29F5               	goto	l4750
  1521  01DD                     u3820:
  1522                           	line	303
  1523                           	
  1524  01DD                     l4742:	
  1525                           ;main.c: 303: onContinue = 0;
  1526  01DD  01E9               	clrf	(xmodem_receive@onContinue)
  1527  01DE  29F5               	goto	l4750
  1528                           	line	304
  1529                           	
  1530  01DF                     l1244:	
  1531                           	line	305
  1532                           ;main.c: 304: }
  1533                           ;main.c: 305: } else {
  1534  01DF  29F5               	goto	l4750
  1535                           	
  1536  01E0                     l1243:	
  1537                           	line	306
  1538                           	
  1539  01E0                     l4744:	
  1540                           ;main.c: 306: if (get232(&received)) {
  1541  01E0  3061               	movlw	(_received)&0ffh
  1542  01E1  3184  246E  3181   	fcall	_get232
  1543  01E4  3A00               	xorlw	0&0ffh
  1544  01E5  1903               	skipnz
  1545  01E6  29E8               	goto	u3831
  1546  01E7  29E9               	goto	u3830
  1547  01E8                     u3831:
  1548  01E8  29F5               	goto	l4750
  1549  01E9                     u3830:
  1550                           	line	307
  1551                           	
  1552  01E9                     l4746:	
  1553                           ;main.c: 307: if (received == 0x01) {
  1554  01E9  0020               	movlb 0	; select bank0
  1555  01EA  0861               	movf	(_received),w
  1556  01EB  3A01               	xorlw	01h&0ffh
  1557  01EC  1D03               	skipz
  1558  01ED  29EF               	goto	u3841
  1559  01EE  29F0               	goto	u3840
  1560  01EF                     u3841:
  1561  01EF  29F5               	goto	l4750
  1562  01F0                     u3840:
  1563                           	line	308
  1564                           	
  1565  01F0                     l4748:	
  1566                           ;main.c: 308: onContinue = 0;
  1567  01F0  01E9               	clrf	(xmodem_receive@onContinue)
  1568  01F1  29F5               	goto	l4750
  1569                           	line	309
  1570                           	
  1571  01F2                     l1247:	
  1572  01F2  29F5               	goto	l4750
  1573                           	line	310
  1574                           	
  1575  01F3                     l1246:	
  1576  01F3  29F5               	goto	l4750
  1577                           	line	311
  1578                           	
  1579  01F4                     l1245:	
  1580  01F4  29F5               	goto	l4750
  1581                           	line	312
  1582                           	
  1583  01F5                     l1238:	
  1584                           	line	296
  1585                           	
  1586  01F5                     l4750:	
  1587  01F5  0020               	movlb 0	; select bank0
  1588  01F6  08E9               	movf	(xmodem_receive@onContinue),f
  1589  01F7  1D03               	skipz
  1590  01F8  29FA               	goto	u3851
  1591  01F9  29FB               	goto	u3850
  1592  01FA                     u3851:
  1593  01FA  29B9               	goto	l1239
  1594  01FB                     u3850:
  1595                           	
  1596  01FB                     l1248:	
  1597                           	line	316
  1598                           ;main.c: 309: }
  1599                           ;main.c: 310: }
  1600                           ;main.c: 311: }
  1601                           ;main.c: 312: }
  1602                           ;main.c: 316: LATA5 = 1;
  1603  01FB  0022               	movlb 2	; select bank2
  1604  01FC  168C               	bsf	(2149/8)^0100h,(2149)&7
  1605                           	line	317
  1606                           	
  1607  01FD                     l4752:	
  1608                           ;main.c: 317: onContinue = 1;
  1609  01FD  0020               	movlb 0	; select bank0
  1610  01FE  01E9               	clrf	(xmodem_receive@onContinue)
  1611  01FF  1403               	bsf	status,0
  1612  0200  0DE9               	rlf	(xmodem_receive@onContinue),f
  1613                           	line	318
  1614                           ;main.c: 318: while(onContinue) {
  1615  0201  2A5E               	goto	l4786
  1616                           	
  1617  0202                     l1250:	
  1618                           	line	319
  1619                           	
  1620  0202                     l4754:	
  1621                           ;main.c: 319: get232(&loop);
  1622  0202  306A               	movlw	(xmodem_receive@loop)&0ffh
  1623  0203  3184  246E  3181   	fcall	_get232
  1624                           	line	320
  1625                           ;main.c: 320: get232(&loop);
  1626  0206  306A               	movlw	(xmodem_receive@loop)&0ffh
  1627  0207  3184  246E  3181   	fcall	_get232
  1628                           	line	322
  1629                           	
  1630  020A                     l4756:	
  1631                           ;main.c: 322: for (loop=0; loop<128; loop++) {
  1632  020A  0020               	movlb 0	; select bank0
  1633  020B  01EA               	clrf	(xmodem_receive@loop)
  1634                           	
  1635  020C                     l4758:	
  1636  020C  3080               	movlw	(080h)
  1637  020D  026A               	subwf	(xmodem_receive@loop),w
  1638  020E  1C03               	skipc
  1639  020F  2A11               	goto	u3861
  1640  0210  2A12               	goto	u3860
  1641  0211                     u3861:
  1642  0211  2A14               	goto	l4762
  1643  0212                     u3860:
  1644  0212  2A37               	goto	l4772
  1645                           	
  1646  0213                     l4760:	
  1647  0213  2A37               	goto	l4772
  1648                           	
  1649  0214                     l1251:	
  1650                           	line	323
  1651                           	
  1652  0214                     l4762:	
  1653                           ;main.c: 323: if (get232(&received) > 0) {
  1654  0214  3061               	movlw	(_received)&0ffh
  1655  0215  3184  246E  3181   	fcall	_get232
  1656  0218  3A00               	xorlw	0&0ffh
  1657  0219  1903               	skipnz
  1658  021A  2A1C               	goto	u3871
  1659  021B  2A1D               	goto	u3870
  1660  021C                     u3871:
  1661  021C  2A2B               	goto	l4768
  1662  021D                     u3870:
  1663                           	line	324
  1664                           	
  1665  021D                     l4764:	
  1666                           ;main.c: 324: if (decodeHexFile(received) != 0) {
  1667  021D  0020               	movlb 0	; select bank0
  1668  021E  0861               	movf	(_received),w
  1669  021F  3180  200F  3181   	fcall	_decodeHexFile
  1670  0222  3A00               	xorlw	0&0ffh
  1671  0223  1903               	skipnz
  1672  0224  2A26               	goto	u3881
  1673  0225  2A27               	goto	u3880
  1674  0226                     u3881:
  1675  0226  2A2B               	goto	l4768
  1676  0227                     u3880:
  1677                           	line	325
  1678                           	
  1679  0227                     l4766:	
  1680                           ;main.c: 325: onContinue = 0;
  1681  0227  0020               	movlb 0	; select bank0
  1682  0228  01E9               	clrf	(xmodem_receive@onContinue)
  1683  0229  2A2B               	goto	l4768
  1684                           	line	326
  1685                           	
  1686  022A                     l1254:	
  1687  022A  2A2B               	goto	l4768
  1688                           	line	327
  1689                           	
  1690  022B                     l1253:	
  1691                           	line	322
  1692                           	
  1693  022B                     l4768:	
  1694  022B  3001               	movlw	(01h)
  1695  022C  0020               	movlb 0	; select bank0
  1696  022D  00E6               	movwf	(??_xmodem_receive+0)+0
  1697  022E  0866               	movf	(??_xmodem_receive+0)+0,w
  1698  022F  07EA               	addwf	(xmodem_receive@loop),f
  1699                           	
  1700  0230                     l4770:	
  1701  0230  3080               	movlw	(080h)
  1702  0231  026A               	subwf	(xmodem_receive@loop),w
  1703  0232  1C03               	skipc
  1704  0233  2A35               	goto	u3891
  1705  0234  2A36               	goto	u3890
  1706  0235                     u3891:
  1707  0235  2A14               	goto	l4762
  1708  0236                     u3890:
  1709  0236  2A37               	goto	l4772
  1710                           	
  1711  0237                     l1252:	
  1712                           	line	329
  1713                           	
  1714  0237                     l4772:	
  1715                           ;main.c: 326: }
  1716                           ;main.c: 327: }
  1717                           ;main.c: 328: }
  1718                           ;main.c: 329: get232(&loop);
  1719  0237  306A               	movlw	(xmodem_receive@loop)&0ffh
  1720  0238  3184  246E  3181   	fcall	_get232
  1721                           	line	332
  1722                           ;main.c: 332: goFlashage();
  1723  023B  3183  23BA  3181   	fcall	_goFlashage
  1724                           	line	334
  1725                           	
  1726  023E                     l4774:	
  1727                           ;main.c: 334: putc232(0x06);
  1728  023E  3006               	movlw	(06h)
  1729  023F  3184  24CB  3181   	fcall	_putc232
  1730                           	line	335
  1731                           	
  1732  0242                     l4776:	
  1733                           ;main.c: 335: if (get232(&received)) {
  1734  0242  3061               	movlw	(_received)&0ffh
  1735  0243  3184  246E  3181   	fcall	_get232
  1736  0246  3A00               	xorlw	0&0ffh
  1737  0247  1903               	skipnz
  1738  0248  2A4A               	goto	u3901
  1739  0249  2A4B               	goto	u3900
  1740  024A                     u3901:
  1741  024A  2A5E               	goto	l4786
  1742  024B                     u3900:
  1743                           	line	336
  1744                           	
  1745  024B                     l4778:	
  1746                           ;main.c: 336: if (received != 0x01) {
  1747  024B  0020               	movlb 0	; select bank0
  1748  024C  0861               	movf	(_received),w
  1749  024D  3A01               	xorlw	01h&0ffh
  1750  024E  1903               	skipnz
  1751  024F  2A51               	goto	u3911
  1752  0250  2A52               	goto	u3910
  1753  0251                     u3911:
  1754  0251  2A5E               	goto	l4786
  1755  0252                     u3910:
  1756                           	line	337
  1757                           	
  1758  0252                     l4780:	
  1759                           ;main.c: 337: onContinue = 0;
  1760  0252  01E9               	clrf	(xmodem_receive@onContinue)
  1761                           	line	338
  1762                           	
  1763  0253                     l4782:	
  1764                           ;main.c: 338: putc232(0x06);
  1765  0253  3006               	movlw	(06h)
  1766  0254  3184  24CB  3181   	fcall	_putc232
  1767                           	line	339
  1768                           	
  1769  0257                     l4784:	
  1770                           ;main.c: 339: retourXReceive = 1;
  1771  0257  0020               	movlb 0	; select bank0
  1772  0258  01DE               	clrf	(_retourXReceive)
  1773  0259  1403               	bsf	status,0
  1774  025A  0DDE               	rlf	(_retourXReceive),f
  1775  025B  2A5E               	goto	l4786
  1776                           	line	340
  1777                           	
  1778  025C                     l1256:	
  1779  025C  2A5E               	goto	l4786
  1780                           	line	341
  1781                           	
  1782  025D                     l1255:	
  1783  025D  2A5E               	goto	l4786
  1784                           	line	342
  1785                           	
  1786  025E                     l1249:	
  1787                           	line	318
  1788                           	
  1789  025E                     l4786:	
  1790  025E  0020               	movlb 0	; select bank0
  1791  025F  08E9               	movf	(xmodem_receive@onContinue),f
  1792  0260  1D03               	skipz
  1793  0261  2A63               	goto	u3921
  1794  0262  2A64               	goto	u3920
  1795  0263                     u3921:
  1796  0263  2A02               	goto	l4754
  1797  0264                     u3920:
  1798  0264  2A65               	goto	l1258
  1799                           	
  1800  0265                     l1257:	
  1801                           	line	343
  1802                           	
  1803  0265                     l1258:	
  1804  0265  0008               	return
  1805                           	opt stack 0
  1806                           GLOBAL	__end_of_xmodem_receive
  1807  0266                     	__end_of_xmodem_receive:
  1808 ;; =============== function _xmodem_receive ends ============
  1809                           
  1810                           	signat	_xmodem_receive,88
  1811                           	global	_decodeHexFile
  1812                           psect	text385,local,class=CODE,delta=2
  1813                           global __ptext385
  1814  000F                     __ptext385:
  1815                           
  1816 ;; *************** function _decodeHexFile *****************
  1817 ;; Defined at:
  1818 ;;		line 169 in file "C:\Users\avili_000\Dropbox\rpi yad\carte home automation\pic\bootloader\main.c"
  1819 ;; Parameters:    Size  Location     Type
  1820 ;;  newChar         1    wreg     unsigned char 
  1821 ;; Auto vars:     Size  Location     Type
  1822 ;;  newChar         1   11[COMMON] unsigned char 
  1823 ;;  retour          1   10[COMMON] unsigned char 
  1824 ;; Return value:  Size  Location     Type
  1825 ;;                  1    wreg      unsigned char 
  1826 ;; Registers used:
  1827 ;;		wreg, fsr0l, fsr0h, fsr1l, fsr1h, status,2, status,0, btemp+1, pclath, cstack
  1828 ;; Tracked objects:
  1829 ;;		On entry : 0/0
  1830 ;;		On exit  : 0/0
  1831 ;;		Unchanged: 0/0
  1832 ;; Data sizes:     COMMON   BANK0   BANK1
  1833 ;;      Params:         0       0       0
  1834 ;;      Locals:         2       0       0
  1835 ;;      Temps:          0       4       0
  1836 ;;      Totals:         2       4       0
  1837 ;;Total ram usage:        6 bytes
  1838 ;; Hardware stack levels used:    1
  1839 ;; Hardware stack levels required when called:    2
  1840 ;; This function calls:
  1841 ;;		_hexToInt
  1842 ;;		_get232
  1843 ;;		___awdiv
  1844 ;; This function is called by:
  1845 ;;		_xmodem_receive
  1846 ;; This function uses a non-reentrant model
  1847 ;;
  1848                           psect	text385
  1849                           	file	"C:\Users\avili_000\Dropbox\rpi yad\carte home automation\pic\bootloader\main.c"
  1850                           	line	169
  1851                           	global	__size_of_decodeHexFile
  1852  0162                     	__size_of_decodeHexFile	equ	__end_of_decodeHexFile-_decodeHexFile
  1853                           	
  1854  000F                     _decodeHexFile:	
  1855                           	opt	stack 12
  1856                           ; Regs used in _decodeHexFile: [allreg]
  1857                           ;decodeHexFile@newChar stored from wreg
  1858  000F  00FB               	movwf	(decodeHexFile@newChar)
  1859                           	line	170
  1860                           	
  1861  0010                     l4598:	
  1862                           ;main.c: 170: unsigned char retour = 0;
  1863  0010  01FA               	clrf	(decodeHexFile@retour)
  1864                           	line	172
  1865                           ;main.c: 172: switch(state) {
  1866  0011  2963               	goto	l4690
  1867                           	line	173
  1868                           ;main.c: 173: case 0:
  1869                           	
  1870  0012                     l1207:	
  1871                           	line	174
  1872                           	
  1873  0012                     l4600:	
  1874                           ;main.c: 174: if (newChar == ':') {
  1875  0012  087B               	movf	(decodeHexFile@newChar),w
  1876  0013  3A3A               	xorlw	03Ah&0ffh
  1877  0014  1D03               	skipz
  1878  0015  2817               	goto	u3591
  1879  0016  2818               	goto	u3590
  1880  0017                     u3591:
  1881  0017  296E               	goto	l4692
  1882  0018                     u3590:
  1883                           	line	175
  1884                           	
  1885  0018                     l4602:	
  1886                           ;main.c: 175: state = 1;
  1887  0018  0020               	movlb 0	; select bank0
  1888  0019  01DF               	clrf	(_state)
  1889  001A  1403               	bsf	status,0
  1890  001B  0DDF               	rlf	(_state),f
  1891                           	line	176
  1892                           	
  1893  001C                     l4604:	
  1894                           ;main.c: 176: cptInterne = 0;
  1895  001C  01FC               	clrf	(_cptInterne)
  1896                           	line	177
  1897                           	
  1898  001D                     l4606:	
  1899                           ;main.c: 177: nbToReceive = 0;
  1900  001D  01DC               	clrf	(_nbToReceive)
  1901                           	line	178
  1902                           	
  1903  001E                     l4608:	
  1904                           ;main.c: 178: counter++;
  1905  001E  3001               	movlw	(01h)
  1906  001F  00E2               	movwf	(??_decodeHexFile+0)+0
  1907  0020  0862               	movf	(??_decodeHexFile+0)+0,w
  1908  0021  07DA               	addwf	(_counter),f
  1909  0022  296E               	goto	l4692
  1910                           	line	179
  1911                           	
  1912  0023                     l1208:	
  1913                           	line	180
  1914                           ;main.c: 179: }
  1915                           ;main.c: 180: break;
  1916  0023  296E               	goto	l4692
  1917                           	line	181
  1918                           ;main.c: 181: case 1:
  1919                           	
  1920  0024                     l1210:	
  1921                           	line	182
  1922                           	
  1923  0024                     l4610:	
  1924                           ;main.c: 182: nbToReceive = (nbToReceive << 4) + hexToInt(newChar) ;
  1925  0024  087B               	movf	(decodeHexFile@newChar),w
  1926  0025  3184  24B5  3180   	fcall	_hexToInt
  1927  0028  0020               	movlb 0	; select bank0
  1928  0029  00E2               	movwf	(??_decodeHexFile+0)+0
  1929  002A  085C               	movf	(_nbToReceive),w
  1930  002B  00E3               	movwf	(??_decodeHexFile+1)+0
  1931  002C  3003               	movlw	(04h)-1
  1932  002D                     u3605:
  1933  002D  35E3               	lslf	(??_decodeHexFile+1)+0,f
  1934  002E  3EFF               	addlw	-1
  1935  002F  1D03               	skipz
  1936  0030  282D               	goto	u3605
  1937  0031  3563               	lslf	(??_decodeHexFile+1)+0,w
  1938  0032  0762               	addwf	0+(??_decodeHexFile+0)+0,w
  1939  0033  00E4               	movwf	(??_decodeHexFile+2)+0
  1940  0034  0864               	movf	(??_decodeHexFile+2)+0,w
  1941  0035  00DC               	movwf	(_nbToReceive)
  1942                           	line	183
  1943                           	
  1944  0036                     l4612:	
  1945                           ;main.c: 183: if (cptInterne++ > 0) {
  1946  0036  3001               	movlw	(01h)
  1947  0037  00E2               	movwf	(??_decodeHexFile+0)+0
  1948  0038  0862               	movf	(??_decodeHexFile+0)+0,w
  1949  0039  07FC               	addwf	(_cptInterne),f
  1950  003A  087C               	movf	((_cptInterne)),w
  1951  003B  3A01               	xorlw	01h&0ffh
  1952  003C  1903               	skipnz
  1953  003D  283F               	goto	u3611
  1954  003E  2840               	goto	u3610
  1955  003F                     u3611:
  1956  003F  296E               	goto	l4692
  1957  0040                     u3610:
  1958                           	line	184
  1959                           	
  1960  0040                     l4614:	
  1961                           ;main.c: 184: state = 2;
  1962  0040  3002               	movlw	(02h)
  1963  0041  00E2               	movwf	(??_decodeHexFile+0)+0
  1964  0042  0862               	movf	(??_decodeHexFile+0)+0,w
  1965  0043  00DF               	movwf	(_state)
  1966                           	line	185
  1967                           	
  1968  0044                     l4616:	
  1969                           ;main.c: 185: cptInterne = 0;
  1970  0044  01FC               	clrf	(_cptInterne)
  1971                           	line	186
  1972                           	
  1973  0045                     l4618:	
  1974                           ;main.c: 186: address = 0;
  1975  0045  01D4               	clrf	(_address)
  1976  0046  01D5               	clrf	(_address+1)
  1977  0047  296E               	goto	l4692
  1978                           	line	187
  1979                           	
  1980  0048                     l1211:	
  1981                           	line	188
  1982                           ;main.c: 187: }
  1983                           ;main.c: 188: break;
  1984  0048  296E               	goto	l4692
  1985                           	line	189
  1986                           ;main.c: 189: case 2:
  1987                           	
  1988  0049                     l1212:	
  1989                           	line	190
  1990                           	
  1991  0049                     l4620:	
  1992                           ;main.c: 190: address = ((address << 4) + hexToInt(newChar)) ;
  1993  0049  087B               	movf	(decodeHexFile@newChar),w
  1994  004A  3184  24B5  3180   	fcall	_hexToInt
  1995  004D  0020               	movlb 0	; select bank0
  1996  004E  00E2               	movwf	(??_decodeHexFile+0)+0
  1997  004F  01E3               	clrf	(??_decodeHexFile+0)+0+1
  1998  0050  0855               	movf	(_address+1),w
  1999  0051  00E5               	movwf	(??_decodeHexFile+2)+0+1
  2000  0052  0854               	movf	(_address),w
  2001  0053  00E4               	movwf	(??_decodeHexFile+2)+0
  2002  0054  3004               	movlw	04h
  2003  0055                     u3625:
  2004  0055  35E4               	lslf	(??_decodeHexFile+2)+0,f
  2005  0056  0DE5               	rlf	(??_decodeHexFile+2)+1,f
  2006  0057  0B89               	decfsz	wreg,f
  2007  0058  2855               	goto	u3625
  2008  0059  0862               	movf	0+(??_decodeHexFile+0)+0,w
  2009  005A  0764               	addwf	0+(??_decodeHexFile+2)+0,w
  2010  005B  00D4               	movwf	(_address)
  2011  005C  0863               	movf	1+(??_decodeHexFile+0)+0,w
  2012  005D  3D65               	addwfc	1+(??_decodeHexFile+2)+0,w
  2013  005E  00D5               	movwf	1+(_address)
  2014                           	line	191
  2015                           	
  2016  005F                     l4622:	
  2017                           ;main.c: 191: if (cptInterne++ > 2) {
  2018  005F  3001               	movlw	(01h)
  2019  0060  00E2               	movwf	(??_decodeHexFile+0)+0
  2020  0061  0862               	movf	(??_decodeHexFile+0)+0,w
  2021  0062  07FC               	addwf	(_cptInterne),f
  2022  0063  3004               	movlw	(04h)
  2023  0064  027C               	subwf	((_cptInterne)),w
  2024  0065  1C03               	skipc
  2025  0066  2868               	goto	u3631
  2026  0067  2869               	goto	u3630
  2027  0068                     u3631:
  2028  0068  296E               	goto	l4692
  2029  0069                     u3630:
  2030                           	line	192
  2031                           	
  2032  0069                     l4624:	
  2033                           ;main.c: 192: state = 3;
  2034  0069  3003               	movlw	(03h)
  2035  006A  00E2               	movwf	(??_decodeHexFile+0)+0
  2036  006B  0862               	movf	(??_decodeHexFile+0)+0,w
  2037  006C  00DF               	movwf	(_state)
  2038                           	line	193
  2039                           	
  2040  006D                     l4626:	
  2041                           ;main.c: 193: cptInterne = 0;
  2042  006D  01FC               	clrf	(_cptInterne)
  2043                           	line	194
  2044                           	
  2045  006E                     l4628:	
  2046                           ;main.c: 194: address /= 2;
  2047  006E  3001               	movlw	01h
  2048                           	
  2049  006F                     u3645:
  2050  006F  36D5               	lsrf	(_address+1),f
  2051  0070  0CD4               	rrf	(_address),f
  2052  0071  0B89               	decfsz	wreg,f
  2053  0072  286F               	goto	u3645
  2054                           	line	195
  2055                           ;main.c: 195: if (address == 0) {
  2056  0073  0855               	movf	((_address+1)),w
  2057  0074  0454               	iorwf	((_address)),w
  2058  0075  1D03               	skipz
  2059  0076  2878               	goto	u3651
  2060  0077  2879               	goto	u3650
  2061  0078                     u3651:
  2062  0078  287B               	goto	l4632
  2063  0079                     u3650:
  2064                           	line	196
  2065                           	
  2066  0079                     l4630:	
  2067                           ;main.c: 196: state = 0;
  2068  0079  01DF               	clrf	(_state)
  2069                           	line	197
  2070                           ;main.c: 197: } else {
  2071  007A  296E               	goto	l4692
  2072                           	
  2073  007B                     l1214:	
  2074                           	line	198
  2075                           	
  2076  007B                     l4632:	
  2077                           ;main.c: 198: if (iAdresseBase == 0) {
  2078  007B  0857               	movf	((_iAdresseBase+1)),w
  2079  007C  0456               	iorwf	((_iAdresseBase)),w
  2080  007D  1D03               	skipz
  2081  007E  2880               	goto	u3661
  2082  007F  2881               	goto	u3660
  2083  0080                     u3661:
  2084  0080  296E               	goto	l4692
  2085  0081                     u3660:
  2086                           	line	199
  2087                           	
  2088  0081                     l4634:	
  2089                           ;main.c: 199: iAdresseBase = address;
  2090  0081  0855               	movf	(_address+1),w
  2091  0082  01D7               	clrf	(_iAdresseBase+1)
  2092  0083  07D7               	addwf	(_iAdresseBase+1)
  2093  0084  0854               	movf	(_address),w
  2094  0085  01D6               	clrf	(_iAdresseBase)
  2095  0086  07D6               	addwf	(_iAdresseBase)
  2096                           
  2097  0087  296E               	goto	l4692
  2098                           	line	200
  2099                           	
  2100  0088                     l1216:	
  2101  0088  296E               	goto	l4692
  2102                           	line	201
  2103                           	
  2104  0089                     l1215:	
  2105  0089  296E               	goto	l4692
  2106                           	line	202
  2107                           	
  2108  008A                     l1213:	
  2109                           	line	203
  2110                           ;main.c: 200: }
  2111                           ;main.c: 201: }
  2112                           ;main.c: 202: }
  2113                           ;main.c: 203: break;
  2114  008A  296E               	goto	l4692
  2115                           	line	204
  2116                           ;main.c: 204: case 3:
  2117                           	
  2118  008B                     l1217:	
  2119                           	line	205
  2120                           	
  2121  008B                     l4636:	
  2122                           ;main.c: 205: recordType = (recordType << 4) + hexToInt(newChar) ;
  2123  008B  087B               	movf	(decodeHexFile@newChar),w
  2124  008C  3184  24B5  3180   	fcall	_hexToInt
  2125  008F  0020               	movlb 0	; select bank0
  2126  0090  00E2               	movwf	(??_decodeHexFile+0)+0
  2127  0091  085D               	movf	(_recordType),w
  2128  0092  00E3               	movwf	(??_decodeHexFile+1)+0
  2129  0093  3003               	movlw	(04h)-1
  2130  0094                     u3675:
  2131  0094  35E3               	lslf	(??_decodeHexFile+1)+0,f
  2132  0095  3EFF               	addlw	-1
  2133  0096  1D03               	skipz
  2134  0097  2894               	goto	u3675
  2135  0098  3563               	lslf	(??_decodeHexFile+1)+0,w
  2136  0099  0762               	addwf	0+(??_decodeHexFile+0)+0,w
  2137  009A  00E4               	movwf	(??_decodeHexFile+2)+0
  2138  009B  0864               	movf	(??_decodeHexFile+2)+0,w
  2139  009C  00DD               	movwf	(_recordType)
  2140                           	line	206
  2141                           	
  2142  009D                     l4638:	
  2143                           ;main.c: 206: if (cptInterne++ > 0) {
  2144  009D  3001               	movlw	(01h)
  2145  009E  00E2               	movwf	(??_decodeHexFile+0)+0
  2146  009F  0862               	movf	(??_decodeHexFile+0)+0,w
  2147  00A0  07FC               	addwf	(_cptInterne),f
  2148  00A1  087C               	movf	((_cptInterne)),w
  2149  00A2  3A01               	xorlw	01h&0ffh
  2150  00A3  1903               	skipnz
  2151  00A4  28A6               	goto	u3681
  2152  00A5  28A7               	goto	u3680
  2153  00A6                     u3681:
  2154  00A6  296E               	goto	l4692
  2155  00A7                     u3680:
  2156                           	line	207
  2157                           	
  2158  00A7                     l4640:	
  2159                           ;main.c: 207: if (recordType == 1) {
  2160  00A7  085D               	movf	(_recordType),w
  2161  00A8  3A01               	xorlw	01h&0ffh
  2162  00A9  1D03               	skipz
  2163  00AA  28AC               	goto	u3691
  2164  00AB  28AD               	goto	u3690
  2165  00AC                     u3691:
  2166  00AC  28C2               	goto	l4650
  2167  00AD                     u3690:
  2168                           	line	209
  2169                           	
  2170  00AD                     l4642:	
  2171                           ;main.c: 209: get232(&data);
  2172  00AD  3060               	movlw	(_data)&0ffh
  2173  00AE  3184  246E  3180   	fcall	_get232
  2174                           	line	210
  2175                           ;main.c: 210: get232(&data);
  2176  00B1  3060               	movlw	(_data)&0ffh
  2177  00B2  3184  246E  3180   	fcall	_get232
  2178                           	line	211
  2179                           ;main.c: 211: get232(&data);
  2180  00B5  3060               	movlw	(_data)&0ffh
  2181  00B6  3184  246E  3180   	fcall	_get232
  2182                           	line	212
  2183                           	
  2184  00B9                     l4644:	
  2185                           ;main.c: 212: state = 0;
  2186  00B9  0020               	movlb 0	; select bank0
  2187  00BA  01DF               	clrf	(_state)
  2188                           	line	213
  2189                           	
  2190  00BB                     l4646:	
  2191                           ;main.c: 213: retour = 1;
  2192  00BB  01FA               	clrf	(decodeHexFile@retour)
  2193  00BC  1403               	bsf	status,0
  2194  00BD  0DFA               	rlf	(decodeHexFile@retour),f
  2195                           	line	214
  2196                           	
  2197  00BE                     l4648:	
  2198                           ;main.c: 214: retourXReceive = 1;
  2199  00BE  01DE               	clrf	(_retourXReceive)
  2200  00BF  1403               	bsf	status,0
  2201  00C0  0DDE               	rlf	(_retourXReceive),f
  2202                           	line	215
  2203                           ;main.c: 215: } else {
  2204  00C1  296E               	goto	l4692
  2205                           	
  2206  00C2                     l1219:	
  2207                           	line	216
  2208                           	
  2209  00C2                     l4650:	
  2210                           ;main.c: 216: state = 4;
  2211  00C2  3004               	movlw	(04h)
  2212  00C3  00E2               	movwf	(??_decodeHexFile+0)+0
  2213  00C4  0862               	movf	(??_decodeHexFile+0)+0,w
  2214  00C5  00DF               	movwf	(_state)
  2215                           	line	217
  2216                           	
  2217  00C6                     l4652:	
  2218                           ;main.c: 217: cptInterne = 0;
  2219  00C6  01FC               	clrf	(_cptInterne)
  2220  00C7  296E               	goto	l4692
  2221                           	line	218
  2222                           	
  2223  00C8                     l1220:	
  2224  00C8  296E               	goto	l4692
  2225                           	line	219
  2226                           	
  2227  00C9                     l1218:	
  2228                           	line	220
  2229                           ;main.c: 218: }
  2230                           ;main.c: 219: }
  2231                           ;main.c: 220: break;
  2232  00C9  296E               	goto	l4692
  2233                           	line	222
  2234                           ;main.c: 222: case 4:
  2235                           	
  2236  00CA                     l1221:	
  2237                           	line	223
  2238                           	
  2239  00CA                     l4654:	
  2240                           ;main.c: 223: iData = hexToInt(newChar) << 4;
  2241  00CA  087B               	movf	(decodeHexFile@newChar),w
  2242  00CB  3184  24B5  3180   	fcall	_hexToInt
  2243  00CE  0020               	movlb 0	; select bank0
  2244  00CF  00E2               	movwf	(??_decodeHexFile+0)+0
  2245  00D0  01E3               	clrf	(??_decodeHexFile+0)+0+1
  2246  00D1  3004               	movlw	04h
  2247  00D2                     u3705:
  2248  00D2  35E2               	lslf	(??_decodeHexFile+0)+0,f
  2249  00D3  0DE3               	rlf	(??_decodeHexFile+0)+1,f
  2250  00D4  0B89               	decfsz	wreg,f
  2251  00D5  28D2               	goto	u3705
  2252  00D6  0862               	movf	0+(??_decodeHexFile+0)+0,w
  2253  00D7  00D8               	movwf	(_iData)
  2254  00D8  0863               	movf	1+(??_decodeHexFile+0)+0,w
  2255  00D9  00D9               	movwf	(_iData+1)
  2256                           	line	224
  2257                           	
  2258  00DA                     l4656:	
  2259                           ;main.c: 224: state = 5;
  2260  00DA  3005               	movlw	(05h)
  2261  00DB  00E2               	movwf	(??_decodeHexFile+0)+0
  2262  00DC  0862               	movf	(??_decodeHexFile+0)+0,w
  2263  00DD  00DF               	movwf	(_state)
  2264                           	line	225
  2265                           ;main.c: 225: break;
  2266  00DE  296E               	goto	l4692
  2267                           	line	226
  2268                           ;main.c: 226: case 5:
  2269                           	
  2270  00DF                     l1222:	
  2271                           	line	227
  2272                           	
  2273  00DF                     l4658:	
  2274                           ;main.c: 227: iData = iData + hexToInt(newChar);
  2275  00DF  087B               	movf	(decodeHexFile@newChar),w
  2276  00E0  3184  24B5  3180   	fcall	_hexToInt
  2277  00E3  0020               	movlb 0	; select bank0
  2278  00E4  0758               	addwf	(_iData),w
  2279  00E5  00D8               	movwf	(_iData)
  2280  00E6  0859               	movf	(_iData+1),w
  2281  00E7  1803               	skipnc
  2282  00E8  0A59               	incf	(_iData+1),w
  2283  00E9  00D9               	movwf	((_iData))+1
  2284                           	line	228
  2285                           	
  2286  00EA                     l4660:	
  2287                           ;main.c: 228: state = 6;
  2288  00EA  3006               	movlw	(06h)
  2289  00EB  00E2               	movwf	(??_decodeHexFile+0)+0
  2290  00EC  0862               	movf	(??_decodeHexFile+0)+0,w
  2291  00ED  00DF               	movwf	(_state)
  2292                           	line	229
  2293                           ;main.c: 229: break;
  2294  00EE  296E               	goto	l4692
  2295                           	line	230
  2296                           ;main.c: 230: case 6:
  2297                           	
  2298  00EF                     l1223:	
  2299                           	line	231
  2300                           	
  2301  00EF                     l4662:	
  2302                           ;main.c: 231: iData = iData + (hexToInt(newChar) << 12);
  2303  00EF  087B               	movf	(decodeHexFile@newChar),w
  2304  00F0  3184  24B5  3180   	fcall	_hexToInt
  2305  00F3  0020               	movlb 0	; select bank0
  2306  00F4  00E2               	movwf	(??_decodeHexFile+0)+0
  2307  00F5  01E3               	clrf	(??_decodeHexFile+0)+0+1
  2308  00F6  300C               	movlw	0Ch
  2309  00F7                     u3715:
  2310  00F7  35E2               	lslf	(??_decodeHexFile+0)+0,f
  2311  00F8  0DE3               	rlf	(??_decodeHexFile+0)+1,f
  2312  00F9  0B89               	decfsz	wreg,f
  2313  00FA  28F7               	goto	u3715
  2314  00FB  0858               	movf	(_iData),w
  2315  00FC  0762               	addwf	0+(??_decodeHexFile+0)+0,w
  2316  00FD  00D8               	movwf	(_iData)
  2317  00FE  0859               	movf	(_iData+1),w
  2318  00FF  3D63               	addwfc	1+(??_decodeHexFile+0)+0,w
  2319  0100  00D9               	movwf	1+(_iData)
  2320                           	line	232
  2321                           	
  2322  0101                     l4664:	
  2323                           ;main.c: 232: state = 7;
  2324  0101  3007               	movlw	(07h)
  2325  0102  00E2               	movwf	(??_decodeHexFile+0)+0
  2326  0103  0862               	movf	(??_decodeHexFile+0)+0,w
  2327  0104  00DF               	movwf	(_state)
  2328                           	line	233
  2329                           ;main.c: 233: break;
  2330  0105  296E               	goto	l4692
  2331                           	line	235
  2332                           ;main.c: 235: case 7:
  2333                           	
  2334  0106                     l1224:	
  2335                           	line	236
  2336                           	
  2337  0106                     l4666:	
  2338                           ;main.c: 236: iData = iData + (hexToInt(newChar) << 8) ;
  2339  0106  087B               	movf	(decodeHexFile@newChar),w
  2340  0107  3184  24B5  3180   	fcall	_hexToInt
  2341  010A  0020               	movlb 0	; select bank0
  2342  010B  00E2               	movwf	(??_decodeHexFile+0)+0
  2343  010C  01E3               	clrf	(??_decodeHexFile+0)+0+1
  2344  010D  0862               	movf	(??_decodeHexFile+0)+0,w
  2345  010E  00E3               	movwf	(??_decodeHexFile+0)+1
  2346  010F  01E2               	clrf	(??_decodeHexFile+0)+0
  2347  0110  0858               	movf	(_iData),w
  2348  0111  0762               	addwf	0+(??_decodeHexFile+0)+0,w
  2349  0112  00D8               	movwf	(_iData)
  2350  0113  0859               	movf	(_iData+1),w
  2351  0114  3D63               	addwfc	1+(??_decodeHexFile+0)+0,w
  2352  0115  00D9               	movwf	1+(_iData)
  2353                           	line	237
  2354                           	
  2355  0116                     l4668:	
  2356                           ;main.c: 237: cptInterne++;
  2357  0116  3001               	movlw	(01h)
  2358  0117  00E2               	movwf	(??_decodeHexFile+0)+0
  2359  0118  0862               	movf	(??_decodeHexFile+0)+0,w
  2360  0119  07FC               	addwf	(_cptInterne),f
  2361                           	line	238
  2362                           	
  2363  011A                     l4670:	
  2364                           ;main.c: 238: if (nbData < (26 - 1)) {
  2365  011A  3019               	movlw	(019h)
  2366  011B  025B               	subwf	(_nbData),w
  2367  011C  1803               	skipnc
  2368  011D  291F               	goto	u3721
  2369  011E  2920               	goto	u3720
  2370  011F                     u3721:
  2371  011F  292E               	goto	l4676
  2372  0120                     u3720:
  2373                           	line	239
  2374                           	
  2375  0120                     l4672:	
  2376                           ;main.c: 239: iTabData[nbData] = iData;
  2377  0120  085B               	movf	(_nbData),w
  2378  0121  0709               	addwf	wreg,w
  2379  0122  3E20               	addlw	_iTabData&0ffh
  2380  0123  0086               	movwf	fsr1l
  2381  0124  0187               	clrf fsr1h	
  2382                           	
  2383  0125  0858               	movf	(_iData),w
  2384  0126  3FC0               	movwi	[0]fsr1
  2385  0127  0859               	movf	(_iData+1),w
  2386  0128  3FC1               	movwi	[1]fsr1
  2387                           	line	240
  2388                           	
  2389  0129                     l4674:	
  2390                           ;main.c: 240: nbData++;
  2391  0129  3001               	movlw	(01h)
  2392  012A  00E2               	movwf	(??_decodeHexFile+0)+0
  2393  012B  0862               	movf	(??_decodeHexFile+0)+0,w
  2394  012C  07DB               	addwf	(_nbData),f
  2395  012D  292E               	goto	l4676
  2396                           	line	243
  2397                           	
  2398  012E                     l1225:	
  2399                           	line	244
  2400                           	
  2401  012E                     l4676:	
  2402                           ;main.c: 243: }
  2403                           ;main.c: 244: if (cptInterne < (nbToReceive/2)) {
  2404  012E  3002               	movlw	low(02h)
  2405  012F  00F1               	movwf	(?___awdiv)
  2406  0130  3000               	movlw	high(02h)
  2407  0131  00F2               	movwf	((?___awdiv))+1
  2408  0132  085C               	movf	(_nbToReceive),w
  2409  0133  00E2               	movwf	(??_decodeHexFile+0)+0
  2410  0134  01E3               	clrf	(??_decodeHexFile+0)+0+1
  2411  0135  0862               	movf	0+(??_decodeHexFile+0)+0,w
  2412  0136  00F3               	movwf	0+(?___awdiv)+02h
  2413  0137  0863               	movf	1+(??_decodeHexFile+0)+0,w
  2414  0138  00F4               	movwf	1+(?___awdiv)+02h
  2415  0139  3183  234E  3180   	fcall	___awdiv
  2416  013C  0872               	movf	(1+(?___awdiv)),w
  2417  013D  3A80               	xorlw	80h
  2418  013E  3C80               	sublw	080h
  2419  013F  1D03               	skipz
  2420  0140  2943               	goto	u3735
  2421  0141  0871               	movf	(0+(?___awdiv)),w
  2422  0142  027C               	subwf	(_cptInterne),w
  2423  0143                     u3735:
  2424                           
  2425  0143  1803               	skipnc
  2426  0144  2946               	goto	u3731
  2427  0145  2947               	goto	u3730
  2428  0146                     u3731:
  2429  0146  294D               	goto	l4680
  2430  0147                     u3730:
  2431                           	line	245
  2432                           	
  2433  0147                     l4678:	
  2434                           ;main.c: 245: state = 4;
  2435  0147  3004               	movlw	(04h)
  2436  0148  0020               	movlb 0	; select bank0
  2437  0149  00E2               	movwf	(??_decodeHexFile+0)+0
  2438  014A  0862               	movf	(??_decodeHexFile+0)+0,w
  2439  014B  00DF               	movwf	(_state)
  2440                           	line	246
  2441                           ;main.c: 246: } else {
  2442  014C  296E               	goto	l4692
  2443                           	
  2444  014D                     l1226:	
  2445                           	line	248
  2446                           	
  2447  014D                     l4680:	
  2448                           ;main.c: 248: state = 8;
  2449  014D  3008               	movlw	(08h)
  2450  014E  0020               	movlb 0	; select bank0
  2451  014F  00E2               	movwf	(??_decodeHexFile+0)+0
  2452  0150  0862               	movf	(??_decodeHexFile+0)+0,w
  2453  0151  00DF               	movwf	(_state)
  2454                           	line	249
  2455                           	
  2456  0152                     l4682:	
  2457                           ;main.c: 249: cptInterne = 0;
  2458  0152  01FC               	clrf	(_cptInterne)
  2459  0153  296E               	goto	l4692
  2460                           	line	250
  2461                           	
  2462  0154                     l1227:	
  2463                           	line	251
  2464                           ;main.c: 250: }
  2465                           ;main.c: 251: break;
  2466  0154  296E               	goto	l4692
  2467                           	line	252
  2468                           ;main.c: 252: case 8:
  2469                           	
  2470  0155                     l1228:	
  2471                           	line	253
  2472                           	
  2473  0155                     l4684:	
  2474                           ;main.c: 253: if (cptInterne++ > 0) {
  2475  0155  3001               	movlw	(01h)
  2476  0156  00E2               	movwf	(??_decodeHexFile+0)+0
  2477  0157  0862               	movf	(??_decodeHexFile+0)+0,w
  2478  0158  07FC               	addwf	(_cptInterne),f
  2479  0159  087C               	movf	((_cptInterne)),w
  2480  015A  3A01               	xorlw	01h&0ffh
  2481  015B  1903               	skipnz
  2482  015C  295E               	goto	u3741
  2483  015D  295F               	goto	u3740
  2484  015E                     u3741:
  2485  015E  296E               	goto	l4692
  2486  015F                     u3740:
  2487                           	line	254
  2488                           	
  2489  015F                     l4686:	
  2490                           ;main.c: 254: state = 0;
  2491  015F  01DF               	clrf	(_state)
  2492  0160  296E               	goto	l4692
  2493                           	line	255
  2494                           	
  2495  0161                     l1229:	
  2496                           	line	256
  2497                           ;main.c: 255: }
  2498                           ;main.c: 256: break;
  2499  0161  296E               	goto	l4692
  2500                           	line	258
  2501                           	
  2502  0162                     l4688:	
  2503                           ;main.c: 258: }
  2504  0162  296E               	goto	l4692
  2505                           	line	172
  2506                           	
  2507  0163                     l1206:	
  2508                           	
  2509  0163                     l4690:	
  2510  0163  0020               	movlb 0	; select bank0
  2511  0164  085F               	movf	(_state),w
  2512                           	; Switch size 1, requested type "space"
  2513                           ; Number of cases is 9, Range of values is 0 to 8
  2514                           ; switch strategies available:
  2515                           ; Name         Instructions Cycles
  2516                           ; direct_byte           24     6 (fixed)
  2517                           ; simple_byte           28    15 (average)
  2518                           ; jumptable            260     6 (fixed)
  2519                           ; rangetable            13     4 (fixed)
  2520                           ; spacedrange           23     6 (fixed)
  2521                           ; locatedrange           9     3 (fixed)
  2522                           ;	Chosen strategy is direct_byte
  2523                           
  2524  0165  0084               	movwf fsr0l
  2525  0166  3009               	movlw	9
  2526  0167  0204               	subwf	fsr0l,w
  2527  0168  1803               skipnc
  2528  0169  296E               goto l4692
  2529  016A  3184               movlp high(S4900)
  2530  016B  30E2               	movlw low(S4900)
  2531  016C  0704               	addwf fsr0l,w
  2532  016D  0082               	movwf pc
  2533                           psect	swtext1,local,class=CONST,delta=2
  2534                           global __pswtext1
  2535  04E2                     __pswtext1:
  2536  04E2                     S4900:
  2537  04E2  2812               	ljmp	l4600
  2538  04E3  2824               	ljmp	l4610
  2539  04E4  2849               	ljmp	l4620
  2540  04E5  288B               	ljmp	l4636
  2541  04E6  28CA               	ljmp	l4654
  2542  04E7  28DF               	ljmp	l4658
  2543  04E8  28EF               	ljmp	l4662
  2544  04E9  2906               	ljmp	l4666
  2545  04EA  2955               	ljmp	l4684
  2546                           psect	text385
  2547                           
  2548                           	line	258
  2549                           	
  2550  016E                     l1209:	
  2551                           	line	259
  2552                           	
  2553  016E                     l4692:	
  2554                           ;main.c: 259: return retour;
  2555  016E  087A               	movf	(decodeHexFile@retour),w
  2556  016F  2970               	goto	l1230
  2557                           	
  2558  0170                     l4694:	
  2559                           	line	260
  2560                           	
  2561  0170                     l1230:	
  2562  0170  0008               	return
  2563                           	opt stack 0
  2564                           GLOBAL	__end_of_decodeHexFile
  2565  0171                     	__end_of_decodeHexFile:
  2566 ;; =============== function _decodeHexFile ends ============
  2567                           
  2568                           	signat	_decodeHexFile,4217
  2569                           	global	_put232
  2570                           psect	text386,local,class=CODE,delta=2
  2571                           global __ptext386
  2572  049C                     __ptext386:
  2573                           
  2574 ;; *************** function _put232 *****************
  2575 ;; Defined at:
  2576 ;;		line 86 in file "C:\Users\avili_000\Dropbox\rpi yad\carte home automation\pic\bootloader\main.c"
  2577 ;; Parameters:    Size  Location     Type
  2578 ;;  pData           1    wreg     PTR unsigned char 
  2579 ;;		 -> STR_4(6), STR_3(10), STR_2(31), STR_1(35), 
  2580 ;; Auto vars:     Size  Location     Type
  2581 ;;  pData           1    3[COMMON] PTR unsigned char 
  2582 ;;		 -> STR_4(6), STR_3(10), STR_2(31), STR_1(35), 
  2583 ;; Return value:  Size  Location     Type
  2584 ;;		None               void
  2585 ;; Registers used:
  2586 ;;		wreg, status,2, status,0, pclath, cstack
  2587 ;; Tracked objects:
  2588 ;;		On entry : 0/0
  2589 ;;		On exit  : 0/0
  2590 ;;		Unchanged: 0/0
  2591 ;; Data sizes:     COMMON   BANK0   BANK1
  2592 ;;      Params:         0       0       0
  2593 ;;      Locals:         1       0       0
  2594 ;;      Temps:          1       0       0
  2595 ;;      Totals:         2       0       0
  2596 ;;Total ram usage:        2 bytes
  2597 ;; Hardware stack levels used:    1
  2598 ;; Hardware stack levels required when called:    2
  2599 ;; This function calls:
  2600 ;;		_putc232
  2601 ;; This function is called by:
  2602 ;;		_main
  2603 ;; This function uses a non-reentrant model
  2604 ;;
  2605                           psect	text386
  2606                           	file	"C:\Users\avili_000\Dropbox\rpi yad\carte home automation\pic\bootloader\main.c"
  2607                           	line	86
  2608                           	global	__size_of_put232
  2609  0019                     	__size_of_put232	equ	__end_of_put232-_put232
  2610                           	
  2611  049C                     _put232:	
  2612                           	opt	stack 13
  2613                           ; Regs used in _put232: [wreg+status,2+status,0+pclath+cstack]
  2614                           ;put232@pData stored from wreg
  2615  049C  00F3               	movwf	(put232@pData)
  2616                           	line	87
  2617                           	
  2618  049D                     l4590:	
  2619                           ;main.c: 87: while(*pData != 0) {
  2620  049D  2CAA               	goto	l4596
  2621                           	
  2622  049E                     l1189:	
  2623                           	line	88
  2624                           	
  2625  049E                     l4592:	
  2626                           ;main.c: 88: putc232(*pData);
  2627  049E  0873               	movf	(put232@pData),w
  2628  049F  3184               	movlp	high __stringtab
  2629  04A0  000A               	callw
  2630  04A1  3184               	pagesel	$
  2631  04A2  3184  24CB  3184   	fcall	_putc232
  2632                           	line	89
  2633                           	
  2634  04A5                     l4594:	
  2635                           ;main.c: 89: pData++;
  2636  04A5  3001               	movlw	(01h)
  2637  04A6  00F2               	movwf	(??_put232+0)+0
  2638  04A7  0872               	movf	(??_put232+0)+0,w
  2639  04A8  07F3               	addwf	(put232@pData),f
  2640  04A9  2CAA               	goto	l4596
  2641                           	line	90
  2642                           	
  2643  04AA                     l1188:	
  2644                           	line	87
  2645                           	
  2646  04AA                     l4596:	
  2647  04AA  0873               	movf	(put232@pData),w
  2648  04AB  3184               	movlp	high __stringtab
  2649  04AC  000A               	callw
  2650  04AD  3184               	pagesel	$
  2651  04AE  3800               	iorlw	0
  2652  04AF  1D03               	skipz
  2653  04B0  2CB2               	goto	u3581
  2654  04B1  2CB3               	goto	u3580
  2655  04B2                     u3581:
  2656  04B2  2C9E               	goto	l4592
  2657  04B3                     u3580:
  2658  04B3  2CB4               	goto	l1191
  2659                           	
  2660  04B4                     l1190:	
  2661                           	line	91
  2662                           	
  2663  04B4                     l1191:	
  2664  04B4  0008               	return
  2665                           	opt stack 0
  2666                           GLOBAL	__end_of_put232
  2667  04B5                     	__end_of_put232:
  2668 ;; =============== function _put232 ends ============
  2669                           
  2670                           	signat	_put232,4216
  2671                           	global	___awdiv
  2672                           psect	text387,local,class=CODE,delta=2
  2673                           global __ptext387
  2674  034E                     __ptext387:
  2675                           
  2676 ;; *************** function ___awdiv *****************
  2677 ;; Defined at:
  2678 ;;		line 5 in file "C:\Program Files (x86)\HI-TECH Software\PICC\9.83\sources\awdiv.c"
  2679 ;; Parameters:    Size  Location     Type
  2680 ;;  divisor         2    1[COMMON] int 
  2681 ;;  dividend        2    3[COMMON] int 
  2682 ;; Auto vars:     Size  Location     Type
  2683 ;;  quotient        2    8[COMMON] int 
  2684 ;;  sign            1    7[COMMON] unsigned char 
  2685 ;;  counter         1    6[COMMON] unsigned char 
  2686 ;; Return value:  Size  Location     Type
  2687 ;;                  2    1[COMMON] int 
  2688 ;; Registers used:
  2689 ;;		wreg, status,2, status,0
  2690 ;; Tracked objects:
  2691 ;;		On entry : 0/0
  2692 ;;		On exit  : 0/0
  2693 ;;		Unchanged: 0/0
  2694 ;; Data sizes:     COMMON   BANK0   BANK1
  2695 ;;      Params:         4       0       0
  2696 ;;      Locals:         4       0       0
  2697 ;;      Temps:          1       0       0
  2698 ;;      Totals:         9       0       0
  2699 ;;Total ram usage:        9 bytes
  2700 ;; Hardware stack levels used:    1
  2701 ;; Hardware stack levels required when called:    1
  2702 ;; This function calls:
  2703 ;;		Nothing
  2704 ;; This function is called by:
  2705 ;;		_decodeHexFile
  2706 ;; This function uses a non-reentrant model
  2707 ;;
  2708                           psect	text387
  2709                           	file	"C:\Program Files (x86)\HI-TECH Software\PICC\9.83\sources\awdiv.c"
  2710                           	line	5
  2711                           	global	__size_of___awdiv
  2712  006C                     	__size_of___awdiv	equ	__end_of___awdiv-___awdiv
  2713                           	
  2714  034E                     ___awdiv:	
  2715                           	opt	stack 12
  2716                           ; Regs used in ___awdiv: [wreg+status,2+status,0]
  2717                           	line	9
  2718                           	
  2719  034E                     l4550:	
  2720  034E  01F7               	clrf	(___awdiv@sign)
  2721                           	line	10
  2722  034F  1FF2               	btfss	(___awdiv@divisor+1),7
  2723  0350  2B52               	goto	u3481
  2724  0351  2B53               	goto	u3480
  2725  0352                     u3481:
  2726  0352  2B5C               	goto	l4554
  2727  0353                     u3480:
  2728                           	line	11
  2729                           	
  2730  0353                     l4552:	
  2731  0353  09F1               	comf	(___awdiv@divisor),f
  2732  0354  09F2               	comf	(___awdiv@divisor+1),f
  2733  0355  0AF1               	incf	(___awdiv@divisor),f
  2734  0356  1903               	skipnz
  2735  0357  0AF2               	incf	(___awdiv@divisor+1),f
  2736                           	line	12
  2737  0358  01F7               	clrf	(___awdiv@sign)
  2738  0359  1403               	bsf	status,0
  2739  035A  0DF7               	rlf	(___awdiv@sign),f
  2740  035B  2B5C               	goto	l4554
  2741                           	line	13
  2742                           	
  2743  035C                     l2510:	
  2744                           	line	14
  2745                           	
  2746  035C                     l4554:	
  2747  035C  1FF4               	btfss	(___awdiv@dividend+1),7
  2748  035D  2B5F               	goto	u3491
  2749  035E  2B60               	goto	u3490
  2750  035F                     u3491:
  2751  035F  2B6A               	goto	l4560
  2752  0360                     u3490:
  2753                           	line	15
  2754                           	
  2755  0360                     l4556:	
  2756  0360  09F3               	comf	(___awdiv@dividend),f
  2757  0361  09F4               	comf	(___awdiv@dividend+1),f
  2758  0362  0AF3               	incf	(___awdiv@dividend),f
  2759  0363  1903               	skipnz
  2760  0364  0AF4               	incf	(___awdiv@dividend+1),f
  2761                           	line	16
  2762                           	
  2763  0365                     l4558:	
  2764  0365  3001               	movlw	(01h)
  2765  0366  00F5               	movwf	(??___awdiv+0)+0
  2766  0367  0875               	movf	(??___awdiv+0)+0,w
  2767  0368  06F7               	xorwf	(___awdiv@sign),f
  2768  0369  2B6A               	goto	l4560
  2769                           	line	17
  2770                           	
  2771  036A                     l2511:	
  2772                           	line	18
  2773                           	
  2774  036A                     l4560:	
  2775  036A  01F8               	clrf	(___awdiv@quotient)
  2776  036B  01F9               	clrf	(___awdiv@quotient+1)
  2777                           	line	19
  2778                           	
  2779  036C                     l4562:	
  2780  036C  0872               	movf	(___awdiv@divisor+1),w
  2781  036D  0471               	iorwf	(___awdiv@divisor),w
  2782  036E  1903               	skipnz
  2783  036F  2B71               	goto	u3501
  2784  0370  2B72               	goto	u3500
  2785  0371                     u3501:
  2786  0371  2BA8               	goto	l4582
  2787  0372                     u3500:
  2788                           	line	20
  2789                           	
  2790  0372                     l4564:	
  2791  0372  01F6               	clrf	(___awdiv@counter)
  2792  0373  1403               	bsf	status,0
  2793  0374  0DF6               	rlf	(___awdiv@counter),f
  2794                           	line	21
  2795  0375  2B80               	goto	l4570
  2796                           	
  2797  0376                     l2514:	
  2798                           	line	22
  2799                           	
  2800  0376                     l4566:	
  2801  0376  3001               	movlw	01h
  2802                           	
  2803  0377                     u3515:
  2804  0377  35F1               	lslf	(___awdiv@divisor),f
  2805  0378  0DF2               	rlf	(___awdiv@divisor+1),f
  2806  0379  0B89               	decfsz	wreg,f
  2807  037A  2B77               	goto	u3515
  2808                           	line	23
  2809                           	
  2810  037B                     l4568:	
  2811  037B  3001               	movlw	(01h)
  2812  037C  00F5               	movwf	(??___awdiv+0)+0
  2813  037D  0875               	movf	(??___awdiv+0)+0,w
  2814  037E  07F6               	addwf	(___awdiv@counter),f
  2815  037F  2B80               	goto	l4570
  2816                           	line	24
  2817                           	
  2818  0380                     l2513:	
  2819                           	line	21
  2820                           	
  2821  0380                     l4570:	
  2822  0380  1FF2               	btfss	(___awdiv@divisor+1),(15)&7
  2823  0381  2B83               	goto	u3521
  2824  0382  2B84               	goto	u3520
  2825  0383                     u3521:
  2826  0383  2B76               	goto	l4566
  2827  0384                     u3520:
  2828  0384  2B86               	goto	l4572
  2829                           	
  2830  0385                     l2515:	
  2831  0385  2B86               	goto	l4572
  2832                           	line	25
  2833                           	
  2834  0386                     l2516:	
  2835                           	line	26
  2836                           	
  2837  0386                     l4572:	
  2838  0386  3001               	movlw	01h
  2839                           	
  2840  0387                     u3535:
  2841  0387  35F8               	lslf	(___awdiv@quotient),f
  2842  0388  0DF9               	rlf	(___awdiv@quotient+1),f
  2843  0389  0B89               	decfsz	wreg,f
  2844  038A  2B87               	goto	u3535
  2845                           	line	27
  2846  038B  0872               	movf	(___awdiv@divisor+1),w
  2847  038C  0274               	subwf	(___awdiv@dividend+1),w
  2848  038D  1D03               	skipz
  2849  038E  2B91               	goto	u3545
  2850  038F  0871               	movf	(___awdiv@divisor),w
  2851  0390  0273               	subwf	(___awdiv@dividend),w
  2852  0391                     u3545:
  2853  0391  1C03               	skipc
  2854  0392  2B94               	goto	u3541
  2855  0393  2B95               	goto	u3540
  2856  0394                     u3541:
  2857  0394  2B9B               	goto	l4578
  2858  0395                     u3540:
  2859                           	line	28
  2860                           	
  2861  0395                     l4574:	
  2862  0395  0871               	movf	(___awdiv@divisor),w
  2863  0396  02F3               	subwf	(___awdiv@dividend),f
  2864  0397  0872               	movf	(___awdiv@divisor+1),w
  2865  0398  3BF4               	subwfb	(___awdiv@dividend+1),f
  2866                           	line	29
  2867                           	
  2868  0399                     l4576:	
  2869  0399  1478               	bsf	(___awdiv@quotient)+(0/8),(0)&7
  2870  039A  2B9B               	goto	l4578
  2871                           	line	30
  2872                           	
  2873  039B                     l2517:	
  2874                           	line	31
  2875                           	
  2876  039B                     l4578:	
  2877  039B  3001               	movlw	01h
  2878                           	
  2879  039C                     u3555:
  2880  039C  36F2               	lsrf	(___awdiv@divisor+1),f
  2881  039D  0CF1               	rrf	(___awdiv@divisor),f
  2882  039E  0B89               	decfsz	wreg,f
  2883  039F  2B9C               	goto	u3555
  2884                           	line	32
  2885                           	
  2886  03A0                     l4580:	
  2887  03A0  3001               	movlw	low(01h)
  2888  03A1  02F6               	subwf	(___awdiv@counter),f
  2889  03A2  1D03               	btfss	status,2
  2890  03A3  2BA5               	goto	u3561
  2891  03A4  2BA6               	goto	u3560
  2892  03A5                     u3561:
  2893  03A5  2B86               	goto	l4572
  2894  03A6                     u3560:
  2895  03A6  2BA8               	goto	l4582
  2896                           	
  2897  03A7                     l2518:	
  2898  03A7  2BA8               	goto	l4582
  2899                           	line	33
  2900                           	
  2901  03A8                     l2512:	
  2902                           	line	34
  2903                           	
  2904  03A8                     l4582:	
  2905  03A8  0877               	movf	(___awdiv@sign),w
  2906  03A9  1D03               	skipz
  2907  03AA  2BAC               	goto	u3570
  2908  03AB  2BB2               	goto	l4586
  2909  03AC                     u3570:
  2910                           	line	35
  2911                           	
  2912  03AC                     l4584:	
  2913  03AC  09F8               	comf	(___awdiv@quotient),f
  2914  03AD  09F9               	comf	(___awdiv@quotient+1),f
  2915  03AE  0AF8               	incf	(___awdiv@quotient),f
  2916  03AF  1903               	skipnz
  2917  03B0  0AF9               	incf	(___awdiv@quotient+1),f
  2918  03B1  2BB2               	goto	l4586
  2919                           	
  2920  03B2                     l2519:	
  2921                           	line	36
  2922                           	
  2923  03B2                     l4586:	
  2924  03B2  0879               	movf	(___awdiv@quotient+1),w
  2925  03B3  01F2               	clrf	(?___awdiv+1)
  2926  03B4  07F2               	addwf	(?___awdiv+1)
  2927  03B5  0878               	movf	(___awdiv@quotient),w
  2928  03B6  01F1               	clrf	(?___awdiv)
  2929  03B7  07F1               	addwf	(?___awdiv)
  2930                           
  2931  03B8  2BB9               	goto	l2520
  2932                           	
  2933  03B9                     l4588:	
  2934                           	line	37
  2935                           	
  2936  03B9                     l2520:	
  2937  03B9  0008               	return
  2938                           	opt stack 0
  2939                           GLOBAL	__end_of___awdiv
  2940  03BA                     	__end_of___awdiv:
  2941 ;; =============== function ___awdiv ends ============
  2942                           
  2943                           	signat	___awdiv,8314
  2944                           	global	_litOctetStart
  2945                           psect	text388,local,class=CODE,delta=2
  2946                           global __ptext388
  2947  04EB                     __ptext388:
  2948                           
  2949 ;; *************** function _litOctetStart *****************
  2950 ;; Defined at:
  2951 ;;		line 347 in file "C:\Users\avili_000\Dropbox\rpi yad\carte home automation\pic\bootloader\main.c"
  2952 ;; Parameters:    Size  Location     Type
  2953 ;;		None
  2954 ;; Auto vars:     Size  Location     Type
  2955 ;;		None
  2956 ;; Return value:  Size  Location     Type
  2957 ;;                  1    wreg      unsigned char 
  2958 ;; Registers used:
  2959 ;;		wreg, status,2
  2960 ;; Tracked objects:
  2961 ;;		On entry : 0/0
  2962 ;;		On exit  : 0/0
  2963 ;;		Unchanged: 0/0
  2964 ;; Data sizes:     COMMON   BANK0   BANK1
  2965 ;;      Params:         0       0       0
  2966 ;;      Locals:         0       0       0
  2967 ;;      Temps:          0       0       0
  2968 ;;      Totals:         0       0       0
  2969 ;;Total ram usage:        0 bytes
  2970 ;; Hardware stack levels used:    1
  2971 ;; Hardware stack levels required when called:    1
  2972 ;; This function calls:
  2973 ;;		Nothing
  2974 ;; This function is called by:
  2975 ;;		_main
  2976 ;; This function uses a non-reentrant model
  2977 ;;
  2978                           psect	text388
  2979                           	file	"C:\Users\avili_000\Dropbox\rpi yad\carte home automation\pic\bootloader\main.c"
  2980                           	line	347
  2981                           	global	__size_of_litOctetStart
  2982  0008                     	__size_of_litOctetStart	equ	__end_of_litOctetStart-_litOctetStart
  2983                           	
  2984  04EB                     _litOctetStart:	
  2985                           	opt	stack 14
  2986                           ; Regs used in _litOctetStart: [wreg+status,2]
  2987                           	line	348
  2988                           	
  2989  04EB                     l4538:	
  2990                           ;main.c: 348: EEADRL = 0;
  2991  04EB  0023               	movlb 3	; select bank3
  2992  04EC  0191               	clrf	(401)^0180h	;volatile
  2993                           	line	349
  2994                           	
  2995  04ED                     l4540:	
  2996                           ;main.c: 349: EEPGD = 0;
  2997  04ED  1395               	bcf	(3247/8)^0180h,(3247)&7
  2998                           	line	350
  2999                           	
  3000  04EE                     l4542:	
  3001                           ;main.c: 350: CFGS = 0;
  3002  04EE  1315               	bcf	(3246/8)^0180h,(3246)&7
  3003                           	line	351
  3004                           	
  3005  04EF                     l4544:	
  3006                           ;main.c: 351: RD = 1;
  3007  04EF  1415               	bsf	(3240/8)^0180h,(3240)&7
  3008                           	line	352
  3009                           	
  3010  04F0                     l4546:	
  3011                           ;main.c: 352: return EEDATL;
  3012  04F0  0813               	movf	(403)^0180h,w	;volatile
  3013  04F1  2CF2               	goto	l1261
  3014                           	
  3015  04F2                     l4548:	
  3016                           	line	353
  3017                           	
  3018  04F2                     l1261:	
  3019  04F2  0008               	return
  3020                           	opt stack 0
  3021                           GLOBAL	__end_of_litOctetStart
  3022  04F3                     	__end_of_litOctetStart:
  3023 ;; =============== function _litOctetStart ends ============
  3024                           
  3025                           	signat	_litOctetStart,89
  3026                           	global	_goFlashage
  3027                           psect	text389,local,class=CODE,delta=2
  3028                           global __ptext389
  3029  03BA                     __ptext389:
  3030                           
  3031 ;; *************** function _goFlashage *****************
  3032 ;; Defined at:
  3033 ;;		line 127 in file "C:\Users\avili_000\Dropbox\rpi yad\carte home automation\pic\bootloader\main.c"
  3034 ;; Parameters:    Size  Location     Type
  3035 ;;		None
  3036 ;; Auto vars:     Size  Location     Type
  3037 ;;  index           1    5[COMMON] unsigned char 
  3038 ;; Return value:  Size  Location     Type
  3039 ;;		None               void
  3040 ;; Registers used:
  3041 ;;		wreg, fsr1l, fsr1h, status,2, status,0
  3042 ;; Tracked objects:
  3043 ;;		On entry : 0/0
  3044 ;;		On exit  : 0/0
  3045 ;;		Unchanged: 0/0
  3046 ;; Data sizes:     COMMON   BANK0   BANK1
  3047 ;;      Params:         0       0       0
  3048 ;;      Locals:         1       0       0
  3049 ;;      Temps:          4       0       0
  3050 ;;      Totals:         5       0       0
  3051 ;;Total ram usage:        5 bytes
  3052 ;; Hardware stack levels used:    1
  3053 ;; Hardware stack levels required when called:    1
  3054 ;; This function calls:
  3055 ;;		Nothing
  3056 ;; This function is called by:
  3057 ;;		_xmodem_receive
  3058 ;; This function uses a non-reentrant model
  3059 ;;
  3060                           psect	text389
  3061                           	file	"C:\Users\avili_000\Dropbox\rpi yad\carte home automation\pic\bootloader\main.c"
  3062                           	line	127
  3063                           	global	__size_of_goFlashage
  3064  0061                     	__size_of_goFlashage	equ	__end_of_goFlashage-_goFlashage
  3065                           	
  3066  03BA                     _goFlashage:	
  3067                           	opt	stack 13
  3068                           ; Regs used in _goFlashage: [wreg+fsr1l-status,0]
  3069                           	line	131
  3070                           	
  3071  03BA                     l4488:	
  3072                           ;main.c: 128: unsigned char index;
  3073                           ;main.c: 131: for (index=0; index<nbData; index++) {
  3074  03BA  01F5               	clrf	(goFlashage@index)
  3075  03BB  2C0A               	goto	l4532
  3076                           	
  3077  03BC                     l1200:	
  3078                           	line	132
  3079                           	
  3080  03BC                     l4490:	
  3081                           ;main.c: 132: EEADR = iAdresseBase+index;
  3082  03BC  0875               	movf	(goFlashage@index),w
  3083  03BD  0020               	movlb 0	; select bank0
  3084  03BE  0756               	addwf	(_iAdresseBase),w
  3085  03BF  0023               	movlb 3	; select bank3
  3086  03C0  0091               	movwf	(401)^0180h	;volatile
  3087  03C1  0020               	movlb 0	; select bank0
  3088  03C2  0857               	movf	(_iAdresseBase+1),w
  3089  03C3  1803               	skipnc
  3090  03C4  0A57               	incf	(_iAdresseBase+1),w
  3091  03C5  0023               	movlb 3	; select bank3
  3092  03C6  0092               	movwf	((401)^0180h)+1	;volatile
  3093                           	line	133
  3094                           	
  3095  03C7                     l4492:	
  3096                           ;main.c: 133: EEDAT = iTabData[index];
  3097  03C7  0875               	movf	(goFlashage@index),w
  3098  03C8  0709               	addwf	wreg,w
  3099  03C9  3E20               	addlw	_iTabData&0ffh
  3100  03CA  0086               	movwf	fsr1l
  3101  03CB  0187               	clrf fsr1h	
  3102                           	
  3103  03CC  3F40               	moviw	[0]fsr1
  3104  03CD  0093               	movwf	(403)^0180h	;volatile
  3105  03CE  3F41               	moviw	[1]fsr1
  3106  03CF  0094               	movwf	(403+1)^0180h	;volatile
  3107                           	line	134
  3108                           	
  3109  03D0                     l4494:	
  3110                           ;main.c: 134: EECON2=0x55;
  3111  03D0  3055               	movlw	(055h)
  3112  03D1  0096               	movwf	(406)^0180h	;volatile
  3113                           	line	135
  3114                           	
  3115  03D2                     l4496:	
  3116                           ;main.c: 135: EECON2=0xAA;
  3117  03D2  30AA               	movlw	(0AAh)
  3118  03D3  0096               	movwf	(406)^0180h	;volatile
  3119                           	line	136
  3120                           	
  3121  03D4                     l4498:	
  3122                           ;main.c: 136: WR = 1;
  3123  03D4  1495               	bsf	(3241/8)^0180h,(3241)&7
  3124                           	line	138
  3125                           	
  3126  03D5                     l4500:	
  3127                           # 138 "C:\Users\avili_000\Dropbox\rpi yad\carte home automation\pic\bootloader\main.c"
  3128  03D5  0000                 nop ;#
  3129                           psect	text389
  3130                           	line	139
  3131                           	
  3132  03D6                     l4502:	
  3133                           # 139 "C:\Users\avili_000\Dropbox\rpi yad\carte home automation\pic\bootloader\main.c"
  3134  03D6  0000                 nop ;#
  3135                           psect	text389
  3136                           	line	142
  3137                           	
  3138  03D7                     l4504:	
  3139                           ;main.c: 142: if (((iAdresseBase+index) & 0xF) == 0xf) {
  3140  03D7  0875               	movf	(goFlashage@index),w
  3141  03D8  0020               	movlb 0	; select bank0
  3142  03D9  0756               	addwf	(_iAdresseBase),w
  3143  03DA  00F1               	movwf	(??_goFlashage+0)+0
  3144  03DB  0857               	movf	(_iAdresseBase+1),w
  3145  03DC  1803               	skipnc
  3146  03DD  0A57               	incf	(_iAdresseBase+1),w
  3147  03DE  00F2               	movwf	((??_goFlashage+0)+0)+1
  3148  03DF  300F               	movlw	low(0Fh)
  3149  03E0  0571               	andwf	0+(??_goFlashage+0)+0,w
  3150  03E1  00F3               	movwf	(??_goFlashage+2)+0
  3151  03E2  3000               	movlw	high(0Fh)
  3152  03E3  0572               	andwf	1+(??_goFlashage+0)+0,w
  3153  03E4  00F4               	movwf	1+(??_goFlashage+2)+0
  3154  03E5  300F               	movlw	0Fh
  3155  03E6  0673               	xorwf	0+(??_goFlashage+2)+0,w
  3156  03E7  0474               	iorwf	1+(??_goFlashage+2)+0,w
  3157  03E8  1D03               	skipz
  3158  03E9  2BEB               	goto	u3461
  3159  03EA  2BEC               	goto	u3460
  3160  03EB                     u3461:
  3161  03EB  2C05               	goto	l4530
  3162  03EC                     u3460:
  3163                           	line	144
  3164                           	
  3165  03EC                     l4506:	
  3166                           ;main.c: 144: LWLO = 0;
  3167  03EC  0023               	movlb 3	; select bank3
  3168  03ED  1295               	bcf	(3245/8)^0180h,(3245)&7
  3169                           	line	145
  3170                           	
  3171  03EE                     l4508:	
  3172                           ;main.c: 145: EEDAT = iTabData[index];
  3173  03EE  0875               	movf	(goFlashage@index),w
  3174  03EF  0709               	addwf	wreg,w
  3175  03F0  3E20               	addlw	_iTabData&0ffh
  3176  03F1  0086               	movwf	fsr1l
  3177  03F2  0187               	clrf fsr1h	
  3178                           	
  3179  03F3  3F40               	moviw	[0]fsr1
  3180  03F4  0093               	movwf	(403)^0180h	;volatile
  3181  03F5  3F41               	moviw	[1]fsr1
  3182  03F6  0094               	movwf	(403+1)^0180h	;volatile
  3183                           	line	146
  3184                           	
  3185  03F7                     l4510:	
  3186                           ;main.c: 146: EECON2=0x55;
  3187  03F7  3055               	movlw	(055h)
  3188  03F8  0096               	movwf	(406)^0180h	;volatile
  3189                           	line	147
  3190                           	
  3191  03F9                     l4512:	
  3192                           ;main.c: 147: EECON2=0xAA;
  3193  03F9  30AA               	movlw	(0AAh)
  3194  03FA  0096               	movwf	(406)^0180h	;volatile
  3195                           	line	148
  3196                           	
  3197  03FB                     l4514:	
  3198                           ;main.c: 148: WR = 1;
  3199  03FB  1495               	bsf	(3241/8)^0180h,(3241)&7
  3200                           	line	151
  3201                           	
  3202  03FC                     l4516:	
  3203                           # 151 "C:\Users\avili_000\Dropbox\rpi yad\carte home automation\pic\bootloader\main.c"
  3204  03FC  0000                   nop ;#
  3205                           psect	text389
  3206                           	line	152
  3207                           	
  3208  03FD                     l4518:	
  3209                           # 152 "C:\Users\avili_000\Dropbox\rpi yad\carte home automation\pic\bootloader\main.c"
  3210  03FD  0000                   nop ;#
  3211                           psect	text389
  3212                           	line	155
  3213                           	
  3214  03FE                     l4520:	
  3215                           ;main.c: 155: WREN = 0;
  3216  03FE  0023               	movlb 3	; select bank3
  3217  03FF  1115               	bcf	(3242/8)^0180h,(3242)&7
  3218                           	line	156
  3219                           	
  3220  0400                     l4522:	
  3221                           ;main.c: 156: EEPGD = 1;
  3222  0400  1795               	bsf	(3247/8)^0180h,(3247)&7
  3223                           	line	157
  3224                           	
  3225  0401                     l4524:	
  3226                           ;main.c: 157: WREN = 1;
  3227  0401  1515               	bsf	(3242/8)^0180h,(3242)&7
  3228                           	line	158
  3229                           	
  3230  0402                     l4526:	
  3231                           ;main.c: 158: CFGS = 0;
  3232  0402  1315               	bcf	(3246/8)^0180h,(3246)&7
  3233                           	line	159
  3234                           	
  3235  0403                     l4528:	
  3236                           ;main.c: 159: LWLO = 1;
  3237  0403  1695               	bsf	(3245/8)^0180h,(3245)&7
  3238  0404  2C05               	goto	l4530
  3239                           	line	160
  3240                           	
  3241  0405                     l1201:	
  3242                           	line	131
  3243                           	
  3244  0405                     l4530:	
  3245  0405  3001               	movlw	(01h)
  3246  0406  00F1               	movwf	(??_goFlashage+0)+0
  3247  0407  0871               	movf	(??_goFlashage+0)+0,w
  3248  0408  07F5               	addwf	(goFlashage@index),f
  3249  0409  2C0A               	goto	l4532
  3250                           	
  3251  040A                     l1199:	
  3252                           	
  3253  040A                     l4532:	
  3254  040A  0020               	movlb 0	; select bank0
  3255  040B  085B               	movf	(_nbData),w
  3256  040C  0275               	subwf	(goFlashage@index),w
  3257  040D  1C03               	skipc
  3258  040E  2C10               	goto	u3471
  3259  040F  2C11               	goto	u3470
  3260  0410                     u3471:
  3261  0410  2BBC               	goto	l4490
  3262  0411                     u3470:
  3263  0411  2C12               	goto	l4534
  3264                           	
  3265  0412                     l1202:	
  3266                           	line	162
  3267                           	
  3268  0412                     l4534:	
  3269                           ;main.c: 160: }
  3270                           ;main.c: 161: }
  3271                           ;main.c: 162: iAdresseBase += nbData;
  3272  0412  085B               	movf	(_nbData),w
  3273  0413  00F1               	movwf	(??_goFlashage+0)+0
  3274  0414  01F2               	clrf	(??_goFlashage+0)+0+1
  3275  0415  0871               	movf	0+(??_goFlashage+0)+0,w
  3276  0416  07D6               	addwf	(_iAdresseBase),f
  3277  0417  0872               	movf	1+(??_goFlashage+0)+0,w
  3278  0418  3DD7               	addwfc	(_iAdresseBase+1),f
  3279                           	line	163
  3280                           	
  3281  0419                     l4536:	
  3282                           ;main.c: 163: nbData = 0;
  3283  0419  01DB               	clrf	(_nbData)
  3284                           	line	165
  3285                           	
  3286  041A                     l1203:	
  3287  041A  0008               	return
  3288                           	opt stack 0
  3289                           GLOBAL	__end_of_goFlashage
  3290  041B                     	__end_of_goFlashage:
  3291 ;; =============== function _goFlashage ends ============
  3292                           
  3293                           	signat	_goFlashage,88
  3294                           	global	_hexToInt
  3295                           psect	text390,local,class=CODE,delta=2
  3296                           global __ptext390
  3297  04B5                     __ptext390:
  3298                           
  3299 ;; *************** function _hexToInt *****************
  3300 ;; Defined at:
  3301 ;;		line 93 in file "C:\Users\avili_000\Dropbox\rpi yad\carte home automation\pic\bootloader\main.c"
  3302 ;; Parameters:    Size  Location     Type
  3303 ;;  hexC            1    wreg     unsigned char 
  3304 ;; Auto vars:     Size  Location     Type
  3305 ;;  hexC            1    3[COMMON] unsigned char 
  3306 ;;  retour          1    2[COMMON] unsigned char 
  3307 ;; Return value:  Size  Location     Type
  3308 ;;                  1    wreg      unsigned char 
  3309 ;; Registers used:
  3310 ;;		wreg, status,2, status,0
  3311 ;; Tracked objects:
  3312 ;;		On entry : 0/0
  3313 ;;		On exit  : 0/0
  3314 ;;		Unchanged: 0/0
  3315 ;; Data sizes:     COMMON   BANK0   BANK1
  3316 ;;      Params:         0       0       0
  3317 ;;      Locals:         2       0       0
  3318 ;;      Temps:          1       0       0
  3319 ;;      Totals:         3       0       0
  3320 ;;Total ram usage:        3 bytes
  3321 ;; Hardware stack levels used:    1
  3322 ;; Hardware stack levels required when called:    1
  3323 ;; This function calls:
  3324 ;;		Nothing
  3325 ;; This function is called by:
  3326 ;;		_decodeHexFile
  3327 ;; This function uses a non-reentrant model
  3328 ;;
  3329                           psect	text390
  3330                           	file	"C:\Users\avili_000\Dropbox\rpi yad\carte home automation\pic\bootloader\main.c"
  3331                           	line	93
  3332                           	global	__size_of_hexToInt
  3333  0016                     	__size_of_hexToInt	equ	__end_of_hexToInt-_hexToInt
  3334                           	
  3335  04B5                     _hexToInt:	
  3336                           	opt	stack 12
  3337                           ; Regs used in _hexToInt: [wreg+status,2+status,0]
  3338                           ;hexToInt@hexC stored from wreg
  3339                           	line	95
  3340  04B5  00F3               	movwf	(hexToInt@hexC)
  3341                           	
  3342  04B6                     l4478:	
  3343                           ;main.c: 94: unsigned char retour;
  3344                           ;main.c: 95: if (hexC <= '9') {
  3345  04B6  303A               	movlw	(03Ah)
  3346  04B7  0273               	subwf	(hexToInt@hexC),w
  3347  04B8  1803               	skipnc
  3348  04B9  2CBB               	goto	u3451
  3349  04BA  2CBC               	goto	u3450
  3350  04BB                     u3451:
  3351  04BB  2CC2               	goto	l4482
  3352  04BC                     u3450:
  3353                           	line	96
  3354                           	
  3355  04BC                     l4480:	
  3356                           ;main.c: 96: retour = hexC - '0';
  3357  04BC  0873               	movf	(hexToInt@hexC),w
  3358  04BD  3ED0               	addlw	0D0h
  3359  04BE  00F1               	movwf	(??_hexToInt+0)+0
  3360  04BF  0871               	movf	(??_hexToInt+0)+0,w
  3361  04C0  00F2               	movwf	(hexToInt@retour)
  3362                           	line	97
  3363                           ;main.c: 97: } else {
  3364  04C1  2CC8               	goto	l4484
  3365                           	
  3366  04C2                     l1194:	
  3367                           	line	98
  3368                           	
  3369  04C2                     l4482:	
  3370                           ;main.c: 98: retour = hexC - 'A' + 10;
  3371  04C2  0873               	movf	(hexToInt@hexC),w
  3372  04C3  3EC9               	addlw	0C9h
  3373  04C4  00F1               	movwf	(??_hexToInt+0)+0
  3374  04C5  0871               	movf	(??_hexToInt+0)+0,w
  3375  04C6  00F2               	movwf	(hexToInt@retour)
  3376  04C7  2CC8               	goto	l4484
  3377                           	line	99
  3378                           	
  3379  04C8                     l1195:	
  3380                           	line	100
  3381                           	
  3382  04C8                     l4484:	
  3383                           ;main.c: 99: }
  3384                           ;main.c: 100: return retour;
  3385  04C8  0872               	movf	(hexToInt@retour),w
  3386  04C9  2CCA               	goto	l1196
  3387                           	
  3388  04CA                     l4486:	
  3389                           	line	101
  3390                           	
  3391  04CA                     l1196:	
  3392  04CA  0008               	return
  3393                           	opt stack 0
  3394                           GLOBAL	__end_of_hexToInt
  3395  04CB                     	__end_of_hexToInt:
  3396 ;; =============== function _hexToInt ends ============
  3397                           
  3398                           	signat	_hexToInt,4217
  3399                           	global	_putc232
  3400                           psect	text391,local,class=CODE,delta=2
  3401                           global __ptext391
  3402  04CB                     __ptext391:
  3403                           
  3404 ;; *************** function _putc232 *****************
  3405 ;; Defined at:
  3406 ;;		line 80 in file "C:\Users\avili_000\Dropbox\rpi yad\carte home automation\pic\bootloader\main.c"
  3407 ;; Parameters:    Size  Location     Type
  3408 ;;  data            1    wreg     unsigned char 
  3409 ;; Auto vars:     Size  Location     Type
  3410 ;;  data            1    1[COMMON] unsigned char 
  3411 ;; Return value:  Size  Location     Type
  3412 ;;		None               void
  3413 ;; Registers used:
  3414 ;;		wreg
  3415 ;; Tracked objects:
  3416 ;;		On entry : 0/0
  3417 ;;		On exit  : 0/0
  3418 ;;		Unchanged: 0/0
  3419 ;; Data sizes:     COMMON   BANK0   BANK1
  3420 ;;      Params:         0       0       0
  3421 ;;      Locals:         1       0       0
  3422 ;;      Temps:          0       0       0
  3423 ;;      Totals:         1       0       0
  3424 ;;Total ram usage:        1 bytes
  3425 ;; Hardware stack levels used:    1
  3426 ;; Hardware stack levels required when called:    1
  3427 ;; This function calls:
  3428 ;;		Nothing
  3429 ;; This function is called by:
  3430 ;;		_put232
  3431 ;;		_xmodem_receive
  3432 ;; This function uses a non-reentrant model
  3433 ;;
  3434                           psect	text391
  3435                           	file	"C:\Users\avili_000\Dropbox\rpi yad\carte home automation\pic\bootloader\main.c"
  3436                           	line	80
  3437                           	global	__size_of_putc232
  3438  000C                     	__size_of_putc232	equ	__end_of_putc232-_putc232
  3439                           	
  3440  04CB                     _putc232:	
  3441                           	opt	stack 13
  3442                           ; Regs used in _putc232: [wreg]
  3443                           ;putc232@data stored from wreg
  3444  04CB  00F1               	movwf	(putc232@data)
  3445                           	line	81
  3446                           	
  3447  04CC                     l4474:	
  3448                           ;main.c: 81: while(TXIF == 0);
  3449  04CC  2CCD               	goto	l1182
  3450                           	
  3451  04CD                     l1183:	
  3452                           	
  3453  04CD                     l1182:	
  3454  04CD  0020               	movlb 0	; select bank0
  3455  04CE  1E11               	btfss	(140/8),(140)&7
  3456  04CF  2CD1               	goto	u3441
  3457  04D0  2CD2               	goto	u3440
  3458  04D1                     u3441:
  3459  04D1  2CCD               	goto	l1182
  3460  04D2                     u3440:
  3461  04D2  2CD3               	goto	l4476
  3462                           	
  3463  04D3                     l1184:	
  3464                           	line	82
  3465                           	
  3466  04D3                     l4476:	
  3467                           ;main.c: 82: TXREG = data;
  3468  04D3  0871               	movf	(putc232@data),w
  3469  04D4  0023               	movlb 3	; select bank3
  3470  04D5  009A               	movwf	(410)^0180h	;volatile
  3471                           	line	83
  3472                           	
  3473  04D6                     l1185:	
  3474  04D6  0008               	return
  3475                           	opt stack 0
  3476                           GLOBAL	__end_of_putc232
  3477  04D7                     	__end_of_putc232:
  3478 ;; =============== function _putc232 ends ============
  3479                           
  3480                           	signat	_putc232,4216
  3481                           	global	_get232
  3482                           psect	text392,local,class=CODE,delta=2
  3483                           global __ptext392
  3484  046E                     __ptext392:
  3485                           
  3486 ;; *************** function _get232 *****************
  3487 ;; Defined at:
  3488 ;;		line 67 in file "C:\Users\avili_000\Dropbox\rpi yad\carte home automation\pic\bootloader\main.c"
  3489 ;; Parameters:    Size  Location     Type
  3490 ;;  pData           1    wreg     PTR unsigned char 
  3491 ;;		 -> xmodem_receive@loop(1), received(1), data(1), 
  3492 ;; Auto vars:     Size  Location     Type
  3493 ;;  pData           1    2[COMMON] PTR unsigned char 
  3494 ;;		 -> xmodem_receive@loop(1), received(1), data(1), 
  3495 ;;  timeout         2    3[COMMON] unsigned int 
  3496 ;; Return value:  Size  Location     Type
  3497 ;;                  1    wreg      unsigned char 
  3498 ;; Registers used:
  3499 ;;		wreg, fsr1l, fsr1h
  3500 ;; Tracked objects:
  3501 ;;		On entry : 0/0
  3502 ;;		On exit  : 0/0
  3503 ;;		Unchanged: 0/0
  3504 ;; Data sizes:     COMMON   BANK0   BANK1
  3505 ;;      Params:         0       0       0
  3506 ;;      Locals:         3       0       0
  3507 ;;      Temps:          1       0       0
  3508 ;;      Totals:         4       0       0
  3509 ;;Total ram usage:        4 bytes
  3510 ;; Hardware stack levels used:    1
  3511 ;; Hardware stack levels required when called:    1
  3512 ;; This function calls:
  3513 ;;		Nothing
  3514 ;; This function is called by:
  3515 ;;		_decodeHexFile
  3516 ;;		_xmodem_receive
  3517 ;;		_main
  3518 ;; This function uses a non-reentrant model
  3519 ;;
  3520                           psect	text392
  3521                           	file	"C:\Users\avili_000\Dropbox\rpi yad\carte home automation\pic\bootloader\main.c"
  3522                           	line	67
  3523                           	global	__size_of_get232
  3524  002E                     	__size_of_get232	equ	__end_of_get232-_get232
  3525                           	
  3526  046E                     _get232:	
  3527                           	opt	stack 12
  3528                           ; Regs used in _get232: [wregfsr1]
  3529                           ;get232@pData stored from wreg
  3530  046E  00F2               	movwf	(get232@pData)
  3531                           	line	68
  3532                           	
  3533  046F                     l4458:	
  3534                           ;main.c: 68: unsigned int timeout = 65000;
  3535  046F  30E8               	movlw	low(0FDE8h)
  3536  0470  00F3               	movwf	(get232@timeout)
  3537  0471  30FD               	movlw	high(0FDE8h)
  3538  0472  00F4               	movwf	((get232@timeout))+1
  3539                           	line	69
  3540                           ;main.c: 69: while((RCIF == 0) && (timeout--)) {
  3541  0473  2C74               	goto	l1172
  3542                           	
  3543  0474                     l1173:	
  3544                           	line	70
  3545                           	
  3546  0474                     l1172:	
  3547                           	line	69
  3548  0474  0020               	movlb 0	; select bank0
  3549  0475  1A91               	btfsc	(141/8),(141)&7
  3550  0476  2C78               	goto	u3411
  3551  0477  2C79               	goto	u3410
  3552  0478                     u3411:
  3553  0478  2C88               	goto	l1176
  3554  0479                     u3410:
  3555                           	
  3556  0479                     l4460:	
  3557  0479  3001               	movlw	low(01h)
  3558  047A  02F3               	subwf	(get232@timeout),f
  3559  047B  3000               	movlw	high(01h)
  3560  047C  3BF4               	subwfb	(get232@timeout+1),f
  3561  047D  30FF               	movlw	high(0FFFFh)
  3562  047E  0674               	xorwf	((get232@timeout+1)),w
  3563  047F  1D03               	skipz
  3564  0480  2C83               	goto	u3425
  3565  0481  30FF               	movlw	low(0FFFFh)
  3566  0482  0673               	xorwf	((get232@timeout)),w
  3567  0483                     u3425:
  3568                           
  3569  0483  1D03               	skipz
  3570  0484  2C86               	goto	u3421
  3571  0485  2C87               	goto	u3420
  3572  0486                     u3421:
  3573  0486  2C74               	goto	l1172
  3574  0487                     u3420:
  3575  0487  2C88               	goto	l1176
  3576                           	
  3577  0488                     l1175:	
  3578                           	
  3579  0488                     l1176:	
  3580                           	line	71
  3581                           ;main.c: 70: }
  3582                           ;main.c: 71: if (RCIF ==0) {
  3583  0488  1A91               	btfsc	(141/8),(141)&7
  3584  0489  2C8B               	goto	u3431
  3585  048A  2C8C               	goto	u3430
  3586  048B                     u3431:
  3587  048B  2C90               	goto	l4468
  3588  048C                     u3430:
  3589                           	line	72
  3590                           	
  3591  048C                     l4462:	
  3592                           ;main.c: 72: return 0;
  3593  048C  3000               	movlw	(0)
  3594  048D  2C9B               	goto	l1178
  3595                           	
  3596  048E                     l4464:	
  3597  048E  2C9B               	goto	l1178
  3598                           	line	73
  3599                           	
  3600  048F                     l4466:	
  3601                           ;main.c: 73: } else {
  3602  048F  2C9B               	goto	l1178
  3603                           	
  3604  0490                     l1177:	
  3605                           	line	74
  3606                           	
  3607  0490                     l4468:	
  3608                           ;main.c: 74: *pData = RCREG;
  3609  0490  0023               	movlb 3	; select bank3
  3610  0491  0819               	movf	(409)^0180h,w	;volatile
  3611  0492  00F1               	movwf	(??_get232+0)+0
  3612  0493  0872               	movf	(get232@pData),w
  3613  0494  0086               	movwf	fsr1l
  3614  0495  0187               	clrf fsr1h	
  3615                           	
  3616  0496  0871               	movf	(??_get232+0)+0,w
  3617  0497  0081               	movwf	indf1
  3618                           	line	75
  3619                           	
  3620  0498                     l4470:	
  3621                           ;main.c: 75: return 1;
  3622  0498  3001               	movlw	(01h)
  3623  0499  2C9B               	goto	l1178
  3624                           	
  3625  049A                     l4472:	
  3626  049A  2C9B               	goto	l1178
  3627                           	line	76
  3628                           	
  3629  049B                     l1179:	
  3630                           	line	77
  3631                           	
  3632  049B                     l1178:	
  3633  049B  0008               	return
  3634                           	opt stack 0
  3635                           GLOBAL	__end_of_get232
  3636  049C                     	__end_of_get232:
  3637 ;; =============== function _get232 ends ============
  3638                           
  3639                           	signat	_get232,4217
  3640                           	global	_interruptFct
  3641                           psect	intentry
  3642                           
  3643 ;; *************** function _interruptFct *****************
  3644 ;; Defined at:
  3645 ;;		line 32 in file "C:\Users\avili_000\Dropbox\rpi yad\carte home automation\pic\bootloader\main.c"
  3646 ;; Parameters:    Size  Location     Type
  3647 ;;		None
  3648 ;; Auto vars:     Size  Location     Type
  3649 ;;		None
  3650 ;; Return value:  Size  Location     Type
  3651 ;;		None               void
  3652 ;; Registers used:
  3653 ;;		None
  3654 ;; Tracked objects:
  3655 ;;		On entry : 0/0
  3656 ;;		On exit  : 0/0
  3657 ;;		Unchanged: 0/0
  3658 ;; Data sizes:     COMMON   BANK0   BANK1
  3659 ;;      Params:         0       0       0
  3660 ;;      Locals:         0       0       0
  3661 ;;      Temps:          1       0       0
  3662 ;;      Totals:         1       0       0
  3663 ;;Total ram usage:        1 bytes
  3664 ;; Hardware stack levels used:    1
  3665 ;; This function calls:
  3666 ;;		Nothing
  3667 ;; This function is called by:
  3668 ;;		Interrupt level 1
  3669 ;; This function uses a non-reentrant model
  3670 ;;
  3671                           psect	intentry
  3672                           	file	"C:\Users\avili_000\Dropbox\rpi yad\carte home automation\pic\bootloader\main.c"
  3673                           	line	32
  3674                           	global	__size_of_interruptFct
  3675  0009                     	__size_of_interruptFct	equ	__end_of_interruptFct-_interruptFct
  3676                           	
  3677  0004                     _interruptFct:	
  3678                           	opt	stack 12
  3679                           ; Regs used in _interruptFct: []
  3680                           psect	intentry
  3681  0004  3180               	pagesel	$
  3682  0005  0020               	movlb 0	; select bank0
  3683  0006  087F               	movf	btemp+1,w
  3684  0007  00F0               	movwf	(??_interruptFct+0)
  3685                           	line	36
  3686                           	
  3687  0008                     i1l2748:	
  3688                           # 36 "C:\Users\avili_000\Dropbox\rpi yad\carte home automation\pic\bootloader\main.c"
  3689  0008  2D04                 goto 0x500 + 0x4 ;#
  3690                           psect	intentry
  3691                           	line	65
  3692                           	
  3693  0009                     i1l1169:	
  3694  0009  0870               	movf	(??_interruptFct+0),w
  3695  000A  0020               	movlb 0	; select bank0
  3696  000B  00FF               	movwf	btemp+1
  3697  000C  0009               	retfie
  3698                           	opt stack 0
  3699                           GLOBAL	__end_of_interruptFct
  3700  000D                     	__end_of_interruptFct:
  3701 ;; =============== function _interruptFct ends ============
  3702                           
  3703                           	signat	_interruptFct,88
  3704                           psect	intentry
  3705                           	global	btemp
  3706  007E                     	btemp set 07Eh
  3707                           
  3708                           	DABS	1,126,2	;btemp
  3709                           	global	wtemp0
  3710  007E                     	wtemp0 set btemp


HI-TECH Software PICC Macro Assembler V9.83 build 10920 
Symbol Table                                                                                   Thu Apr 11 20:50:07 2013

                       pc 0002                        _RD 0CA8                        _WR 0CA9  
            ___awdiv@sign 0077     __end_of_decodeHexFile 0171                       _GIE 005F  
                     _RA5 0065                       wreg 0009                      S4900 04E2  
                    l1200 03BC                      l1201 0405                      l1202 0412  
                    l1210 0024                      l1203 041A                      l1211 0048  
                    l1220 00C8                      l1212 0049                      l1221 00CA  
                    l1213 008A                      l1230 0170                      l1206 0163  
                    l1222 00DF                      l1214 007B                      l1223 00EF  
                    l1215 0089                      l1207 0012                      l1224 0106  
                    l1216 0088                      l1208 0023                      l1240 01C7  
                    l1209 016E                      l1225 012E                      l1217 008B  
                    l1241 01C7                      l1233 0185                      l1226 014D  
                    l1218 00C9                      l1250 0202                      l1242 01CD  
                    l1234 01AE                      l1227 0154                      l1219 00C2  
                    l1251 0214                      l1243 01E0                      l1235 019A  
                    l1172 0474                      l1228 0155                      l1252 0237  
                    l1244 01DF                      l1236 019A                      l1173 0474  
                    l1261 04F2                      l1229 0161                      l1253 022B  
                    l1245 01F4                      l1237 01A0                      l1182 04CD  
                    l1190 04B4                      l1254 022A                      l1238 01F5  
                    l1246 01F3                      l1270 0308                      l1175 0488  
                    l1183 04CD                      l1191 04B4                      l1255 025D  
                    l1247 01F2                      l1239 01B9                      l1271 0300  
                    l1176 0488                      l1184 04D3                      l1256 025C  
                    l1248 01FB                      l1280 030D                      l1264 027A  
                    l1177 0490                      l1185 04D6                      l1257 0265  
                    l1249 025E                      l1281 031F                      l1273 02E7  
                    l1265 027A                      l1178 049B                      l1194 04C2  
                    l1258 0265                      l1282 032B                      l1266 027E  
                    l1179 049B                      l1195 04C8                      l1283 0338  
                    l1275 02C9                      l1267 02A1                      l1196 04CA  
                    l1188 04AA                      l1284 0346                      l1268 0320  
                    l1189 049E                      l1285 034D                      l1277 02D8  
                    l1269 02A5                      l2510 035C                      l1278 02FF  
                    l1199 040A                      l2511 036A                      l1279 0303  
                    l2520 03B9                      l2512 03A8                      l2513 0380  
                    l2514 0376                      l2515 0385                      l2516 0386  
                    l2517 039B                      l2518 03A7                      l2519 03B2  
                    l4500 03D5                      l4510 03F7                      l4502 03D6  
                    l4520 03FE                      l4512 03F9                      l4504 03D7  
                    l4600 0012                      l4522 0400                      l4514 03FB  
                    l4506 03EC                      l4530 0405                      l4610 0024  
                    l4602 0018                      l4460 0479                      l4524 0401  
                    l4516 03FC                      l4508 03EE                      l4532 040A  
                    l4540 04ED                      l4620 0049                      l4612 0036  
                    l4604 001C                      l4700 0171                      l4470 0498  
                    l4462 048C                      l4534 0412                      l4526 0402  
                    l4518 03FD                      l4542 04EE                      l4550 034E  
                    l4630 0079                      l4622 005F                      l4614 0040  
                    l4606 001D                      l4710 0184                      l4702 0173  
                    l4472 049A                      l4464 048E                      l4480 04BC  
                    l4536 0419                      l4528 0403                      l4544 04EF  
                    l4560 036A                      l4552 0353                      l4640 00A7  
                    l4632 007B                      l4624 0069                      l4616 0044  
                    l4608 001E                      l4720 0191                      l4712 0185  
                    l4704 0175                      l4800 026F                      l4466 048F  
                    l4458 046F                      l4474 04CC                      l4482 04C2  
                    l4490 03BC                      l4546 04F0                      l4538 04EB  
                    l4570 0380                      l4562 036C                      l4554 035C  
                    l4642 00AD                      l4650 00C2                      l4634 0081  
                    l4626 006D                      l4618 0045                      l4730 0198  
                    l4722 0192                      l4714 018E                      l4706 0176  
                    l4810 028D                      l4802 0272                      l4468 0490  
                    l4476 04D3                      l4484 04C8                      l4492 03C7  
                    l4548 04F2                      l4580 03A0                      l4572 0386  
                    l4564 0372                      l4556 0360                      l4660 00EA  
                    l4652 00C6                      l4644 00B9                      l4636 008B  
                    l4628 006E                      l4740 01D6                      l4732 01A0  
                    l4724 0194                      l4716 018F                      l4708 017A  
                    l4820 0292                      l4812 028E                      l4804 0277  
                    l4486 04CA                      l4478 04B6                      l4494 03D0  
                    l4574 0395                      l4566 0376                      l4582 03A8  
                    l4558 0365                      l4590 049D                      l4670 011A  
                    l4662 00EF                      l4654 00CA                      l4646 00BB  
                    l4638 009D                      l4742 01DD                      l4750 01F5  
                    l4734 01B3                      l4726 0196                      l4718 0190  
                    l4830 02B2                      l4822 0299                      l4814 028F  
                    l4806 0289                      l4496 03D2                      l4488 03BA  
                    l4584 03AC                      l4576 0399                      l4568 037B  
                    l4592 049E                      l4680 014D                      l4672 0120  
                    l4664 0101                      l4656 00DA                      l4648 00BE  
                    l4760 0213                      l4752 01FD                      l4744 01E0  
                    l4736 01C2                      l4728 0197                      l4840 02D8  
                    l4832 02BB                      l4824 029F                      l4816 0290  
                    l4808 028C                      l4498 03D4                      l4586 03B2  
                    l4578 039B                      l4594 04A5                      l4682 0152  
                    l4674 0129                      l4666 0106                      l4658 00DF  
                    l4690 0163                      l4770 0230                      l4762 0214  
                    l4754 0202                      l4746 01E9                      l4738 01CD  
                    l4850 02F6                      l4842 02DF                      l4834 02C1  
                    l4826 02A1                      l4818 0291                      l4588 03B9  
                    l4596 04AA                      l4684 0155                      l4676 012E  
                    l4668 0116                      l4692 016E                      l4780 0252  
                    l4764 021D                      l4772 0237                      l4756 020A  
                    l4748 01F0                      l4860 031B                      l4852 02F9  
                    l4844 02E7                      l4836 02C9                      l4828 02AE  
                    l4694 0170                      l4686 015F                      l4678 0147  
                    l4598 0010                      l4782 0253                      l4774 023E  
                    l4766 0227                      l4758 020C                      l4870 0337  
                    l4862 031D                      l4854 0303                      l4846 02EC  
                    l4838 02D0                      l4790 0269                      l4688 0162  
                    l4784 0257                      l4776 0242                      l4768 022B  
                    l4872 0338                      l4848 02F2                      l4856 0308  
                    l4864 0320                      l4792 026A                      l4778 024B  
                    l4786 025E                      l4874 0346                      l4866 032B  
                    l4858 0317                      l4794 026B                      l4876 034A  
                    l4868 032D                      l4796 026C                      l4788 0266  
                    l4878 034C                      l4798 026E                      _CFGS 0CAE  
                    STR_1 041C                      STR_2 043F                      STR_3 045E  
                    STR_4 0468                      _BRGH 0CF2                      _CREN 0CEC  
                    _FREE 0CAC                      u4000 02D0                      u4001 02CF  
                    u4010 02D7                      u4011 02D6                      u4020 02DF  
                    u4021 02DE                      u4030 02E6                      u4031 02E5  
                    u4040 02F2                      u4041 02F1                      u3410 0479  
                    u4050 0317                      u3411 0478                      u4051 0316  
                    u3420 0487                      u3500 0372                      u4060 032A  
                    u3421 0486                      u3501 0371                      u4061 0329  
                    u3430 048C                      u4070 0336                      u3431 048B  
                    u4071 0335                      u3440 04D2                      u3520 0384  
                    u4080 0345                      u3425 0483                      u3441 04D1  
                    u3521 0383                      u4081 0344                      u3450 04BC  
                    u3610 0040                      u3451 04BB                      u3515 0377  
                    u3611 003F                      u3460 03EC                      u3540 0395  
                    u3461 03EB                      u3541 0394                      u3605 002D  
                    u3470 0411                      u3630 0069                      u3471 0410  
                    u3535 0387                      u3631 0068                      u3560 03A6  
                    u3480 0353                      u3720 0120                      u3800 01CC  
                    u3561 03A5                      u3545 0391                      u3481 0352  
                    u3721 011F                      u3705 00D2                      u3625 0055  
                    u3801 01CB                      u3570 03AC                      u3490 0360  
                    u3730 0147                      u3650 0079                      u3810 01D6  
                    u3555 039C                      u3491 035F                      u3731 0146  
                    u3715 00F7                      u3651 0078                      u3811 01D5  
                    _PEIE 005E                      u3580 04B3                      u3740 015F  
                    u3660 0081                      u3900 024B                      u3820 01DD  
                    u3581 04B2                      u3741 015E                      u3661 0080  
                    u3645 006F                      u3901 024A                      u3821 01DC  
                    u3590 0018                      u3910 0252                      u3830 01E9  
                    u3750 0183                      u3735 0143                      u3591 0017  
                    u3911 0251                      u3831 01E8                      u3751 0182  
                    u3680 00A7                      u3920 0264                      u3840 01F0  
                    u3760 019F                      u3681 00A6                      u3921 0263  
                    u3841 01EF                      u3761 019E                      u3690 00AD  
                    u3850 01FB                      u3770 01AE                      u3930 027E  
                    u3691 00AC                      u3675 0094                      u3851 01FA  
                    u3771 01AD                      u3931 027D                      u3860 0212  
                    u3780 01C0                      u3940 029F                      _RCIF 008D  
                    u3861 0211                      u3781 01BD                      u3941 029E  
                    u3870 021D                      u3950 02AC                      u3871 021C  
                    u3951 02A9                      u3880 0227                      u3881 0226  
                    u3890 0236                      u3794 01C2                      u3970 02BB  
                    u3891 0235                      u3971 02BA                      u3980 02C1  
                    u3964 02AE                      u3981 02C0                      u3990 02C8  
                    u3991 02C7                      _LWLO 0CAD                      _SPEN 0CEF  
                    _WREN 0CAA                      _TXEN 0CF5                      _TXIF 008C  
                    _SYNC 0CF4              hexToInt@hexC 0073                      _data 0060  
                    _main 0266                      fsr0h 0005                      fsr1h 0007  
                    fsr0l 0004                      indf0 0000                      indf1 0001  
                    fsr1l 0006                      btemp 007E                      start 000D  
xmodem_receive@onContinue 0069                     ?_main 0070           __end_of___awdiv 03BA  
                   _EEADR 0191                     _EEDAT 0193                     _BRG16 0CFB  
                   _CARRY 0018                     _EEPGD 0CAF           ___awdiv@divisor 0071  
                   _LATA5 0865           ___awdiv@counter 0076                     _RCREG 0199  
                   _SPBRG 019B                     _TRISA 008C                     _TXREG 019A  
                   _iData 0058                     _state 005F                     main@i 00A2  
         __end_of_putc232 04D7                     status 0003                     wtemp0 007E  
            __end_of_main 034E    __size_of_litOctetStart 0008                    ??_main 006B  
                  _EEADRL 0191                    _EEDATA 0193                    _EEDATL 0193  
                  _EECON1 0195                    _EECON2 0196          ___awdiv@dividend 0073  
                  _ANSELA 018C                    _HFIOFS 04D0                    i1l1169 0009  
                  i1l2748 0008                    _OSCCON 0099                    _TRISA1 0461  
        __end_of_hexToInt 04CB                    _get232 046E            hexToInt@retour 0072  
               ??___awdiv 0075                    _nbData 005B               put232@pData 0073  
                  _put232 049C          ___awdiv@quotient 0078             main@tempoBoot 00A0  
                  clrloop 04F4                 ??_putc232 0071       decodeHexFile@retour 007A  
           _litOctetStart 04EB            __pcstackCOMMON 0070             ?_interruptFct 0070  
          ?_litOctetStart 0070                __pbssBANK0 0020                _goFlashage 03BA  
          ??_interruptFct 0070                __pmaintext 0266                   ?_get232 0070  
              __pintentry 0004                   ?_put232 0070   __size_of_xmodem_receive 00F5  
              _cptInterne 007C                   _RXDTSEL 08EF                 ?_hexToInt 0070  
                 _TXCKSEL 08EA                __stringtab 041B    __size_of_decodeHexFile 0162  
             putc232@data 0071                   ___awdiv 034E           __size_of_get232 002E  
          main@secuUpdate 00A4                   _address 0054           __size_of_put232 0019  
                 _counter 005A                   _putc232 04CB           ??_litOctetStart 0071  
      xmodem_receive@loop 006A                _recordType 005D                ??_hexToInt 0071  
    end_of_initialization 04E0               ?_goFlashage 0070      decodeHexFile@newChar 007B  
           _decodeHexFile 000F      __end_of_interruptFct 000D            __end_of_get232 049C  
          __end_of_put232 04B5            ?_decodeHexFile 0070            _xmodem_receive 0171  
     __size_of_goFlashage 0061       start_initialization 04D7             get232@timeout 0073  
         goFlashage@index 0075                  ??_get232 0071                  ??_put232 0072  
  __end_of_xmodem_receive 0266               __pbssCOMMON 007C             __pcstackBANK0 0062  
           __pcstackBANK1 00A0               get232@pData 0072         __size_of_hexToInt 0016  
          _retourXReceive 005E                  ?___awdiv 0071                 __ptext390 04B5  
               __ptext391 04CB                 __ptext392 046E                 __ptext384 0171  
               __ptext385 000F                 __ptext386 049C                 __ptext387 034E  
               __ptext388 04EB                 __ptext389 03BA           ??_decodeHexFile 0062  
         ?_xmodem_receive 0070                 __pstrings 041B                 __pswtext1 04E2  
   __size_of_interruptFct 0009               _nbToReceive 005C                  ?_putc232 0070  
            ??_goFlashage 0071              _interruptFct 0004        __end_of_goFlashage 041B  
   __end_of_litOctetStart 04F3          __size_of___awdiv 006C                  _iTabData 0020  
        __size_of_putc232 000C                  _hexToInt 04B5             __size_of_main 00E8  
                _received 0061              _iAdresseBase 0056                  clear_ram 04F3  
     xmodem_receive@index 0067                  intlevel1 0000          ??_xmodem_receive 0066  
